Archive member included to satisfy reference by file (symbol)

/Applications/microchip/xc8/v2.10/avr/bin/../lib/gcc/avr/5.4.0/avrxmega3/libgcc.a(_udivmodhi4.o)
                              build/AWS_IOT/production/mcc_generated_files/CryptoAuthenticationLibrary/atcacert/atcacert_def.o (__udivmodhi4)
/Applications/microchip/xc8/v2.10/avr/bin/../lib/gcc/avr/5.4.0/avrxmega3/libgcc.a(_divmodhi4.o)
                              build/AWS_IOT/production/mcc_generated_files/CryptoAuthenticationLibrary/atcacert/atcacert_date.o (__divmodhi4)
/Applications/microchip/xc8/v2.10/avr/bin/../lib/gcc/avr/5.4.0/avrxmega3/libgcc.a(_udivmodsi4.o)
                              build/AWS_IOT/production/mcc_generated_files/CryptoAuthenticationLibrary/atcacert/atcacert_date.o (__udivmodsi4)
/Applications/microchip/xc8/v2.10/avr/bin/../lib/gcc/avr/5.4.0/avrxmega3/libgcc.a(_exit.o)
                              /Applications/microchip/mplabx/v5.30/packs/Microchip/ATmega_DFP/2.0.12/gcc/dev/atmega4808/avrxmega3/crtatmega4808.o (exit)
/Applications/microchip/xc8/v2.10/avr/bin/../lib/gcc/avr/5.4.0/avrxmega3/libgcc.a(_tablejump2.o)
                              build/AWS_IOT/production/mcc_generated_files/CryptoAuthenticationLibrary/atcacert/atcacert_def.o (__tablejump2__)
/Applications/microchip/xc8/v2.10/avr/bin/../lib/gcc/avr/5.4.0/avrxmega3/libgcc.a(_copy_data.o)
                              build/AWS_IOT/production/mcc_generated_files/cli/cli.o (__do_copy_data)
/Applications/microchip/xc8/v2.10/avr/bin/../lib/gcc/avr/5.4.0/avrxmega3/libgcc.a(_umulhisi3.o)
                              build/AWS_IOT/production/mcc_generated_files/CryptoAuthenticationLibrary/basic/atca_helpers.o (__umulhisi3)
/Applications/microchip/xc8/v2.10/avr/bin/../lib/gcc/avr/5.4.0/avrxmega3/libgcc.a(_usmulhisi3.o)
                              build/AWS_IOT/production/mcc_generated_files/CryptoAuthenticationLibrary/atcacert/atcacert_date.o (__usmulhisi3)
/Applications/microchip/xc8/v2.10/avr/bin/../lib/gcc/avr/5.4.0/avrxmega3/libgcc.a(_muluhisi3.o)
                              build/AWS_IOT/production/mcc_generated_files/CryptoAuthenticationLibrary/atcacert/atcacert_date.o (__muluhisi3)
/Applications/microchip/xc8/v2.10/avr/bin/../lib/gcc/avr/5.4.0/avrxmega3/libgcc.a(_mulshisi3.o)
                              build/AWS_IOT/production/mcc_generated_files/CryptoAuthenticationLibrary/atcacert/atcacert_date.o (__mulshisi3)
/Applications/microchip/xc8/v2.10/avr/bin/../lib/gcc/avr/5.4.0/../../../../avr/lib/avrxmega3/libc.a(atoi_M.o)
                              build/AWS_IOT/production/mcc_generated_files/cli/cli.o (atoi)
/Applications/microchip/xc8/v2.10/avr/bin/../lib/gcc/avr/5.4.0/../../../../avr/lib/avrxmega3/libc.a(atol.o)
                              /Applications/microchip/xc8/v2.10/avr/bin/../lib/gcc/avr/5.4.0/../../../../avr/lib/avrxmega3/libc.a(atoi_M.o) (atol)
/Applications/microchip/xc8/v2.10/avr/bin/../lib/gcc/avr/5.4.0/../../../../avr/lib/avrxmega3/libc.a(tolower.o)
                              build/AWS_IOT/production/mcc_generated_files/CryptoAuthenticationLibrary/basic/atca_helpers.o (tolower)
/Applications/microchip/xc8/v2.10/avr/bin/../lib/gcc/avr/5.4.0/../../../../avr/lib/avrxmega3/libc.a(toupper.o)
                              build/AWS_IOT/production/mcc_generated_files/CryptoAuthenticationLibrary/basic/atca_helpers.o (toupper)
/Applications/microchip/xc8/v2.10/avr/bin/../lib/gcc/avr/5.4.0/../../../../avr/lib/avrxmega3/libc.a(strtok.o)
                              build/AWS_IOT/production/mcc_generated_files/cli/cli.o (strtok)
/Applications/microchip/xc8/v2.10/avr/bin/../lib/gcc/avr/5.4.0/../../../../avr/lib/avrxmega3/libc.a(memcmp.o)
                              build/AWS_IOT/production/mcc_generated_files/cloud/mqtt_service.o (memcmp)
/Applications/microchip/xc8/v2.10/avr/bin/../lib/gcc/avr/5.4.0/../../../../avr/lib/avrxmega3/libc.a(memcpy.o)
                              build/AWS_IOT/production/mcc_generated_files/CryptoAuthenticationLibrary/atcacert/atcacert_client.o (memcpy)
/Applications/microchip/xc8/v2.10/avr/bin/../lib/gcc/avr/5.4.0/../../../../avr/lib/avrxmega3/libc.a(memmove.o)
                              build/AWS_IOT/production/mcc_generated_files/CryptoAuthenticationLibrary/atcacert/atcacert_client.o (memmove)
/Applications/microchip/xc8/v2.10/avr/bin/../lib/gcc/avr/5.4.0/../../../../avr/lib/avrxmega3/libc.a(memset.o)
                              build/AWS_IOT/production/mcc_generated_files/CryptoAuthenticationLibrary/atcacert/atcacert_def.o (memset)
/Applications/microchip/xc8/v2.10/avr/bin/../lib/gcc/avr/5.4.0/../../../../avr/lib/avrxmega3/libc.a(strchr.o)
                              build/AWS_IOT/production/mcc_generated_files/cli/cli.o (strchr)
/Applications/microchip/xc8/v2.10/avr/bin/../lib/gcc/avr/5.4.0/../../../../avr/lib/avrxmega3/libc.a(strcmp.o)
                              build/AWS_IOT/production/mcc_generated_files/cli/cli.o (strcmp)
/Applications/microchip/xc8/v2.10/avr/bin/../lib/gcc/avr/5.4.0/../../../../avr/lib/avrxmega3/libc.a(strcpy.o)
                              build/AWS_IOT/production/mcc_generated_files/cloud/wifi_service.o (strcpy)
/Applications/microchip/xc8/v2.10/avr/bin/../lib/gcc/avr/5.4.0/../../../../avr/lib/avrxmega3/libc.a(strncmp.o)
                              build/AWS_IOT/production/mcc_generated_files/cloud/wifi_service.o (strncmp)
/Applications/microchip/xc8/v2.10/avr/bin/../lib/gcc/avr/5.4.0/../../../../avr/lib/avrxmega3/libc.a(strncpy.o)
                              build/AWS_IOT/production/mcc_generated_files/cli/cli.o (strncpy)
/Applications/microchip/xc8/v2.10/avr/bin/../lib/gcc/avr/5.4.0/../../../../avr/lib/avrxmega3/libc.a(strstr.o)
                              build/AWS_IOT/production/mcc_generated_files/CryptoAuthenticationLibrary/atcacert/atcacert_pem.o (strstr)
/Applications/microchip/xc8/v2.10/avr/bin/../lib/gcc/avr/5.4.0/../../../../avr/lib/avrxmega3/libc.a(strtok_r.o)
                              /Applications/microchip/xc8/v2.10/avr/bin/../lib/gcc/avr/5.4.0/../../../../avr/lib/avrxmega3/libc.a(strtok.o) (strtok_r)
/Applications/microchip/xc8/v2.10/avr/bin/../lib/gcc/avr/5.4.0/../../../../avr/lib/avrxmega3/libc.a(mulsi10.o)
                              /Applications/microchip/xc8/v2.10/avr/bin/../lib/gcc/avr/5.4.0/../../../../avr/lib/avrxmega3/libc.a(atol.o) (__mulsi_const_10)
/Applications/microchip/xc8/v2.10/avr/bin/../lib/gcc/avr/5.4.0/../../../../avr/lib/avrxmega3/libc.a(iob.o)
                              build/AWS_IOT/production/mcc_generated_files/src/usart2.o (__iob)
/Applications/microchip/xc8/v2.10/avr/bin/../lib/gcc/avr/5.4.0/../../../../avr/lib/avrxmega3/libc.a(printf.o)
                              build/AWS_IOT/production/mcc_generated_files/cli/cli.o (printf)
/Applications/microchip/xc8/v2.10/avr/bin/../lib/gcc/avr/5.4.0/../../../../avr/lib/avrxmega3/libc.a(puts.o)
                              build/AWS_IOT/production/mcc_generated_files/cli/cli.o (puts)
/Applications/microchip/xc8/v2.10/avr/bin/../lib/gcc/avr/5.4.0/../../../../avr/lib/avrxmega3/libc.a(snprintf.o)
                              build/AWS_IOT/production/mcc_generated_files/CryptoAuthenticationLibrary/jwt/atca_jwt.o (snprintf)
/Applications/microchip/xc8/v2.10/avr/bin/../lib/gcc/avr/5.4.0/../../../../avr/lib/avrxmega3/libc.a(sprintf.o)
                              build/AWS_IOT/production/mcc_generated_files/cli/cli.o (sprintf)
/Applications/microchip/xc8/v2.10/avr/bin/../lib/gcc/avr/5.4.0/../../../../avr/lib/avrxmega3/libc.a(vprintf.o)
                              build/AWS_IOT/production/mcc_generated_files/debug_print.o (vprintf)
/Applications/microchip/xc8/v2.10/avr/bin/../lib/gcc/avr/5.4.0/../../../../avr/lib/avrxmega3/libc.a(ctime.o)
                              build/AWS_IOT/production/mcc_generated_files/time_service.o (ctime)
/Applications/microchip/xc8/v2.10/avr/bin/../lib/gcc/avr/5.4.0/../../../../avr/lib/avrxmega3/libc.a(difftime.o)
                              build/AWS_IOT/production/mcc_generated_files/time_service.o (difftime)
/Applications/microchip/xc8/v2.10/avr/bin/../lib/gcc/avr/5.4.0/../../../../avr/lib/avrxmega3/libc.a(localtime_r.o)
                              /Applications/microchip/xc8/v2.10/avr/bin/../lib/gcc/avr/5.4.0/../../../../avr/lib/avrxmega3/libc.a(ctime.o) (localtime_r)
/Applications/microchip/xc8/v2.10/avr/bin/../lib/gcc/avr/5.4.0/../../../../avr/lib/avrxmega3/libc.a(mktime.o)
                              build/AWS_IOT/production/mcc_generated_files/time_service.o (mktime)
/Applications/microchip/xc8/v2.10/avr/bin/../lib/gcc/avr/5.4.0/../../../../avr/lib/avrxmega3/libc.a(set_system_time.o)
                              build/AWS_IOT/production/mcc_generated_files/time_service.o (set_system_time)
/Applications/microchip/xc8/v2.10/avr/bin/../lib/gcc/avr/5.4.0/../../../../avr/lib/avrxmega3/libc.a(system_time.o)
                              /Applications/microchip/xc8/v2.10/avr/bin/../lib/gcc/avr/5.4.0/../../../../avr/lib/avrxmega3/libc.a(set_system_time.o) (__system_time)
/Applications/microchip/xc8/v2.10/avr/bin/../lib/gcc/avr/5.4.0/../../../../avr/lib/avrxmega3/libc.a(utc_offset.o)
                              /Applications/microchip/xc8/v2.10/avr/bin/../lib/gcc/avr/5.4.0/../../../../avr/lib/avrxmega3/libc.a(localtime_r.o) (__utc_offset)
/Applications/microchip/xc8/v2.10/avr/bin/../lib/gcc/avr/5.4.0/../../../../avr/lib/avrxmega3/libc.a(vfprintf_std.o)
                              /Applications/microchip/xc8/v2.10/avr/bin/../lib/gcc/avr/5.4.0/../../../../avr/lib/avrxmega3/libc.a(printf.o) (vfprintf)
/Applications/microchip/xc8/v2.10/avr/bin/../lib/gcc/avr/5.4.0/../../../../avr/lib/avrxmega3/libc.a(strnlen_P.o)
                              /Applications/microchip/xc8/v2.10/avr/bin/../lib/gcc/avr/5.4.0/../../../../avr/lib/avrxmega3/libc.a(vfprintf_std.o) (strnlen_P)
/Applications/microchip/xc8/v2.10/avr/bin/../lib/gcc/avr/5.4.0/../../../../avr/lib/avrxmega3/libc.a(strnlen.o)
                              /Applications/microchip/xc8/v2.10/avr/bin/../lib/gcc/avr/5.4.0/../../../../avr/lib/avrxmega3/libc.a(vfprintf_std.o) (strnlen)
/Applications/microchip/xc8/v2.10/avr/bin/../lib/gcc/avr/5.4.0/../../../../avr/lib/avrxmega3/libc.a(fputc.o)
                              /Applications/microchip/xc8/v2.10/avr/bin/../lib/gcc/avr/5.4.0/../../../../avr/lib/avrxmega3/libc.a(vfprintf_std.o) (fputc)
/Applications/microchip/xc8/v2.10/avr/bin/../lib/gcc/avr/5.4.0/../../../../avr/lib/avrxmega3/libc.a(ultoa_invert.o)
                              /Applications/microchip/xc8/v2.10/avr/bin/../lib/gcc/avr/5.4.0/../../../../avr/lib/avrxmega3/libc.a(vfprintf_std.o) (__ultoa_invert)
/Applications/microchip/xc8/v2.10/avr/bin/../lib/gcc/avr/5.4.0/../../../../avr/lib/avrxmega3/libc.a(asc_store.o)
                              /Applications/microchip/xc8/v2.10/avr/bin/../lib/gcc/avr/5.4.0/../../../../avr/lib/avrxmega3/libc.a(ctime.o) (__asc_store)
/Applications/microchip/xc8/v2.10/avr/bin/../lib/gcc/avr/5.4.0/../../../../avr/lib/avrxmega3/libc.a(asctime_r.o)
                              /Applications/microchip/xc8/v2.10/avr/bin/../lib/gcc/avr/5.4.0/../../../../avr/lib/avrxmega3/libc.a(ctime.o) (asctime_r)
/Applications/microchip/xc8/v2.10/avr/bin/../lib/gcc/avr/5.4.0/../../../../avr/lib/avrxmega3/libc.a(dst_pointer.o)
                              /Applications/microchip/xc8/v2.10/avr/bin/../lib/gcc/avr/5.4.0/../../../../avr/lib/avrxmega3/libc.a(localtime_r.o) (__dst_ptr)
/Applications/microchip/xc8/v2.10/avr/bin/../lib/gcc/avr/5.4.0/../../../../avr/lib/avrxmega3/libc.a(gmtime_r.o)
                              /Applications/microchip/xc8/v2.10/avr/bin/../lib/gcc/avr/5.4.0/../../../../avr/lib/avrxmega3/libc.a(localtime_r.o) (gmtime_r)
/Applications/microchip/xc8/v2.10/avr/bin/../lib/gcc/avr/5.4.0/../../../../avr/lib/avrxmega3/libc.a(mk_gmtime.o)
                              /Applications/microchip/xc8/v2.10/avr/bin/../lib/gcc/avr/5.4.0/../../../../avr/lib/avrxmega3/libc.a(mktime.o) (mk_gmtime)
/Applications/microchip/xc8/v2.10/avr/bin/../lib/gcc/avr/5.4.0/../../../../avr/lib/avrxmega3/libc.a(print_lz.o)
                              /Applications/microchip/xc8/v2.10/avr/bin/../lib/gcc/avr/5.4.0/../../../../avr/lib/avrxmega3/libc.a(asctime_r.o) (__print_lz)
/Applications/microchip/xc8/v2.10/avr/bin/../lib/gcc/avr/5.4.0/../../../../avr/lib/avrxmega3/libc.a(isLeap.o)
                              /Applications/microchip/xc8/v2.10/avr/bin/../lib/gcc/avr/5.4.0/../../../../avr/lib/avrxmega3/libc.a(mk_gmtime.o) (is_leap_year)
/Applications/microchip/xc8/v2.10/avr/bin/../lib/gcc/avr/5.4.0/avrxmega3/libgcc.a(_mulsi3.o)
                              /Applications/microchip/xc8/v2.10/avr/bin/../lib/gcc/avr/5.4.0/../../../../avr/lib/avrxmega3/libc.a(mk_gmtime.o) (__mulsi3)
/Applications/microchip/xc8/v2.10/avr/bin/../lib/gcc/avr/5.4.0/avrxmega3/libgcc.a(_divmodsi4.o)
                              /Applications/microchip/xc8/v2.10/avr/bin/../lib/gcc/avr/5.4.0/../../../../avr/lib/avrxmega3/libc.a(gmtime_r.o) (__divmodsi4)
/Applications/microchip/xc8/v2.10/avr/bin/../lib/gcc/avr/5.4.0/avrxmega3/libgcc.a(_negsi2.o)
                              /Applications/microchip/xc8/v2.10/avr/bin/../lib/gcc/avr/5.4.0/avrxmega3/libgcc.a(_divmodsi4.o) (__negsi2)
/Applications/microchip/xc8/v2.10/avr/bin/../lib/gcc/avr/5.4.0/avrxmega3/libgcc.a(_prologue.o)
                              /Applications/microchip/xc8/v2.10/avr/bin/../lib/gcc/avr/5.4.0/../../../../avr/lib/avrxmega3/libc.a(printf.o) (__prologue_saves__)
/Applications/microchip/xc8/v2.10/avr/bin/../lib/gcc/avr/5.4.0/avrxmega3/libgcc.a(_epilogue.o)
                              /Applications/microchip/xc8/v2.10/avr/bin/../lib/gcc/avr/5.4.0/../../../../avr/lib/avrxmega3/libc.a(printf.o) (__epilogue_restores__)

Allocating common symbols
Common symbol       size              file

ssid                0x1f              build/AWS_IOT/production/mcc_generated_files/credentials_storage/credentials_storage.o
g_atcab_device      0x4               build/AWS_IOT/production/mcc_generated_files/CryptoAuthenticationLibrary/basic/atca_basic.o
mqttSubscribeTopic  0x64              build/AWS_IOT/production/mcc_generated_files/application_manager.o
__store             0x1a              /Applications/microchip/xc8/v2.10/avr/bin/../lib/gcc/avr/5.4.0/../../../../avr/lib/avrxmega3/libc.a(asc_store.o)
retValCryptoClientSerialNumber
                    0x1               build/AWS_IOT/production/mcc_generated_files/application_manager.o
pass                0x1f              build/AWS_IOT/production/mcc_generated_files/credentials_storage/credentials_storage.o
prevNTPServerName   0x14              build/AWS_IOT/production/mcc_generated_files/cloud/wifi_service.o
ntpServerName       0x14              build/AWS_IOT/production/mcc_generated_files/credentials_storage/credentials_storage.o
_gmyIface           0x13              build/AWS_IOT/production/mcc_generated_files/CryptoAuthenticationLibrary/CryptoAuth_init.o
cloudStatus         0x1               build/AWS_IOT/production/mcc_generated_files/cloud/cloud_service.o
publishRecvCallback
                    0x2               build/AWS_IOT/production/mcc_generated_files/mqtt/mqtt_packetTransfer_interface.o
imqtt_publishReceiveCallBackTable
                    0x4               build/AWS_IOT/production/mcc_generated_files/cloud/aws_cloud_service.o
_gmyCommand         0x4               build/AWS_IOT/production/mcc_generated_files/CryptoAuthenticationLibrary/CryptoAuth_init.o
__dst_ptr           0x2               /Applications/microchip/xc8/v2.10/avr/bin/../lib/gcc/avr/5.4.0/../../../../avr/lib/avrxmega3/libc.a(dst_pointer.o)
authType            0x2               build/AWS_IOT/production/mcc_generated_files/credentials_storage/credentials_storage.o
mqttBrokerIP        0x4               build/AWS_IOT/production/mcc_generated_files/cloud/cloud_service.o
g_atcab_iface       0x13              build/AWS_IOT/production/mcc_generated_files/CryptoAuthenticationLibrary/basic/atca_basic.o
callback_funcPtr    0x2               build/AWS_IOT/production/mcc_generated_files/cloud/wifi_service.o
__utc_offset        0x4               /Applications/microchip/xc8/v2.10/avr/bin/../lib/gcc/avr/5.4.0/../../../../avr/lib/avrxmega3/libc.a(utc_offset.o)
shared_networking_params
                    0x1               build/AWS_IOT/production/mcc_generated_files/cloud/cloud_service.o
cloud_packetReceiveCallBackTable
                    0xa               build/AWS_IOT/production/mcc_generated_files/cloud/cloud_service.o
g_atcab_command     0x4               build/AWS_IOT/production/mcc_generated_files/CryptoAuthenticationLibrary/basic/atca_basic.o
__iob               0x6               /Applications/microchip/xc8/v2.10/avr/bin/../lib/gcc/avr/5.4.0/../../../../avr/lib/avrxmega3/libc.a(iob.o)
__system_time       0x4               /Applications/microchip/xc8/v2.10/avr/bin/../lib/gcc/avr/5.4.0/../../../../avr/lib/avrxmega3/libc.a(system_time.o)
g_serial_number     0x9               build/AWS_IOT/production/mcc_generated_files/cloud/crypto_client/crypto_client.o
cid                 0x29              build/AWS_IOT/production/mcc_generated_files/cloud/mqtt_service.o

Discarded input sections

 .data          0x0000000000000000        0x0 /Applications/microchip/mplabx/v5.30/packs/Microchip/ATmega_DFP/2.0.12/gcc/dev/atmega4808/avrxmega3/crtatmega4808.o
 .bss           0x0000000000000000        0x0 /Applications/microchip/mplabx/v5.30/packs/Microchip/ATmega_DFP/2.0.12/gcc/dev/atmega4808/avrxmega3/crtatmega4808.o
 .text          0x0000000000000000        0x0 build/AWS_IOT/production/mcc_generated_files/cli/cli.o
 .data          0x0000000000000000        0x0 build/AWS_IOT/production/mcc_generated_files/cli/cli.o
 .bss           0x0000000000000000        0x0 build/AWS_IOT/production/mcc_generated_files/cli/cli.o
 .rodata.firmware_version_number
                0x0000000000000000        0x2 build/AWS_IOT/production/mcc_generated_files/cli/cli.o
 .rodata.cli_version_number
                0x0000000000000000        0x2 build/AWS_IOT/production/mcc_generated_files/cli/cli.o
 .text          0x0000000000000000        0x0 build/AWS_IOT/production/mcc_generated_files/cloud/crypto_client/crypto_client.o
 .data          0x0000000000000000        0x0 build/AWS_IOT/production/mcc_generated_files/cloud/crypto_client/crypto_client.o
 .bss           0x0000000000000000        0x0 build/AWS_IOT/production/mcc_generated_files/cloud/crypto_client/crypto_client.o
 .text.CRYPTO_CLIENT_printPublicKey
                0x0000000000000000       0xca build/AWS_IOT/production/mcc_generated_files/cloud/crypto_client/crypto_client.o
 .rodata.public_key_x509_header
                0x0000000000000000       0x1b build/AWS_IOT/production/mcc_generated_files/cloud/crypto_client/crypto_client.o
 .text          0x0000000000000000        0x0 build/AWS_IOT/production/mcc_generated_files/cloud/cloud_service.o
 .data          0x0000000000000000        0x0 build/AWS_IOT/production/mcc_generated_files/cloud/cloud_service.o
 .bss           0x0000000000000000        0x0 build/AWS_IOT/production/mcc_generated_files/cloud/cloud_service.o
 .text.CLOUD_checkIsDisconnected
                0x0000000000000000        0xc build/AWS_IOT/production/mcc_generated_files/cloud/cloud_service.o
 .text          0x0000000000000000        0x0 build/AWS_IOT/production/mcc_generated_files/cloud/wifi_service.o
 .data          0x0000000000000000        0x0 build/AWS_IOT/production/mcc_generated_files/cloud/wifi_service.o
 .bss           0x0000000000000000        0x0 build/AWS_IOT/production/mcc_generated_files/cloud/wifi_service.o
 .text          0x0000000000000000        0x0 build/AWS_IOT/production/mcc_generated_files/cloud/mqtt_service.o
 .data          0x0000000000000000        0x0 build/AWS_IOT/production/mcc_generated_files/cloud/mqtt_service.o
 .bss           0x0000000000000000        0x0 build/AWS_IOT/production/mcc_generated_files/cloud/mqtt_service.o
 .text.MQTT_GetPublishReceptionHandlerTable
                0x0000000000000000        0xa build/AWS_IOT/production/mcc_generated_files/cloud/mqtt_service.o
 .text          0x0000000000000000        0x0 build/AWS_IOT/production/mcc_generated_files/cloud/aws_cloud_service.o
 .data          0x0000000000000000        0x0 build/AWS_IOT/production/mcc_generated_files/cloud/aws_cloud_service.o
 .bss           0x0000000000000000        0x0 build/AWS_IOT/production/mcc_generated_files/cloud/aws_cloud_service.o
 .text          0x0000000000000000        0x0 build/AWS_IOT/production/mcc_generated_files/credentials_storage/credentials_storage.o
 .data          0x0000000000000000        0x0 build/AWS_IOT/production/mcc_generated_files/credentials_storage/credentials_storage.o
 .bss           0x0000000000000000        0x0 build/AWS_IOT/production/mcc_generated_files/credentials_storage/credentials_storage.o
 .text          0x0000000000000000        0x0 build/AWS_IOT/production/mcc_generated_files/CryptoAuthenticationLibrary/atcacert/atcacert_client.o
 .data          0x0000000000000000        0x0 build/AWS_IOT/production/mcc_generated_files/CryptoAuthenticationLibrary/atcacert/atcacert_client.o
 .bss           0x0000000000000000        0x0 build/AWS_IOT/production/mcc_generated_files/CryptoAuthenticationLibrary/atcacert/atcacert_client.o
 .text.atcacert_get_response
                0x0000000000000000       0x2c build/AWS_IOT/production/mcc_generated_files/CryptoAuthenticationLibrary/atcacert/atcacert_client.o
 .text.atcacert_read_device_loc
                0x0000000000000000       0xfc build/AWS_IOT/production/mcc_generated_files/CryptoAuthenticationLibrary/atcacert/atcacert_client.o
 .text.atcacert_read_cert
                0x0000000000000000      0x120 build/AWS_IOT/production/mcc_generated_files/CryptoAuthenticationLibrary/atcacert/atcacert_client.o
 .text.atcacert_write_cert
                0x0000000000000000      0x1e2 build/AWS_IOT/production/mcc_generated_files/CryptoAuthenticationLibrary/atcacert/atcacert_client.o
 .rodata        0x0000000000000000      0x16b build/AWS_IOT/production/mcc_generated_files/CryptoAuthenticationLibrary/atcacert/atcacert_client.o
 .text.atcacert_create_csr
                0x0000000000000000      0x25a build/AWS_IOT/production/mcc_generated_files/CryptoAuthenticationLibrary/atcacert/atcacert_client.o
 .text.atcacert_create_csr_pem
                0x0000000000000000       0xb8 build/AWS_IOT/production/mcc_generated_files/CryptoAuthenticationLibrary/atcacert/atcacert_client.o
 .bss.data.3472
                0x0000000000000000      0x1a0 build/AWS_IOT/production/mcc_generated_files/CryptoAuthenticationLibrary/atcacert/atcacert_client.o
 .bss.data.3457
                0x0000000000000000      0x1a0 build/AWS_IOT/production/mcc_generated_files/CryptoAuthenticationLibrary/atcacert/atcacert_client.o
 .debug_info    0x0000000000000000     0x1942 build/AWS_IOT/production/mcc_generated_files/CryptoAuthenticationLibrary/atcacert/atcacert_client.o
 .debug_abbrev  0x0000000000000000      0x27a build/AWS_IOT/production/mcc_generated_files/CryptoAuthenticationLibrary/atcacert/atcacert_client.o
 .debug_loc     0x0000000000000000      0xa77 build/AWS_IOT/production/mcc_generated_files/CryptoAuthenticationLibrary/atcacert/atcacert_client.o
 .debug_aranges
                0x0000000000000000       0x48 build/AWS_IOT/production/mcc_generated_files/CryptoAuthenticationLibrary/atcacert/atcacert_client.o
 .debug_ranges  0x0000000000000000       0x98 build/AWS_IOT/production/mcc_generated_files/CryptoAuthenticationLibrary/atcacert/atcacert_client.o
 .debug_line    0x0000000000000000      0x591 build/AWS_IOT/production/mcc_generated_files/CryptoAuthenticationLibrary/atcacert/atcacert_client.o
 .debug_str     0x0000000000000000      0x19f build/AWS_IOT/production/mcc_generated_files/CryptoAuthenticationLibrary/atcacert/atcacert_client.o
 .comment       0x0000000000000000       0x30 build/AWS_IOT/production/mcc_generated_files/CryptoAuthenticationLibrary/atcacert/atcacert_client.o
 .debug_frame   0x0000000000000000      0x1e4 build/AWS_IOT/production/mcc_generated_files/CryptoAuthenticationLibrary/atcacert/atcacert_client.o
 .text          0x0000000000000000        0x0 build/AWS_IOT/production/mcc_generated_files/CryptoAuthenticationLibrary/atcacert/atcacert_date.o
 .data          0x0000000000000000        0x0 build/AWS_IOT/production/mcc_generated_files/CryptoAuthenticationLibrary/atcacert/atcacert_date.o
 .bss           0x0000000000000000        0x0 build/AWS_IOT/production/mcc_generated_files/CryptoAuthenticationLibrary/atcacert/atcacert_date.o
 .text.uint_to_str
                0x0000000000000000       0x78 build/AWS_IOT/production/mcc_generated_files/CryptoAuthenticationLibrary/atcacert/atcacert_date.o
 .text.str_to_int
                0x0000000000000000      0x14c build/AWS_IOT/production/mcc_generated_files/CryptoAuthenticationLibrary/atcacert/atcacert_date.o
 .text.is_leap_year
                0x0000000000000000       0x3e build/AWS_IOT/production/mcc_generated_files/CryptoAuthenticationLibrary/atcacert/atcacert_date.o
 .text.atcacert_date_enc_posix_uint32
                0x0000000000000000      0x2ca build/AWS_IOT/production/mcc_generated_files/CryptoAuthenticationLibrary/atcacert/atcacert_date.o
 .text.atcacert_gmtime32
                0x0000000000000000      0x1dc build/AWS_IOT/production/mcc_generated_files/CryptoAuthenticationLibrary/atcacert/atcacert_date.o
 .text.atcacert_date_get_max_date
                0x0000000000000000      0x14c build/AWS_IOT/production/mcc_generated_files/CryptoAuthenticationLibrary/atcacert/atcacert_date.o
 .text.atcacert_date_enc_iso8601_sep
                0x0000000000000000      0x148 build/AWS_IOT/production/mcc_generated_files/CryptoAuthenticationLibrary/atcacert/atcacert_date.o
 .text.atcacert_date_dec_iso8601_sep
                0x0000000000000000      0x174 build/AWS_IOT/production/mcc_generated_files/CryptoAuthenticationLibrary/atcacert/atcacert_date.o
 .text.atcacert_date_enc_rfc5280_utc
                0x0000000000000000      0x122 build/AWS_IOT/production/mcc_generated_files/CryptoAuthenticationLibrary/atcacert/atcacert_date.o
 .text.atcacert_date_dec_rfc5280_utc
                0x0000000000000000      0x132 build/AWS_IOT/production/mcc_generated_files/CryptoAuthenticationLibrary/atcacert/atcacert_date.o
 .text.atcacert_date_enc_rfc5280_gen
                0x0000000000000000      0x114 build/AWS_IOT/production/mcc_generated_files/CryptoAuthenticationLibrary/atcacert/atcacert_date.o
 .text.atcacert_date_dec_rfc5280_gen
                0x0000000000000000      0x116 build/AWS_IOT/production/mcc_generated_files/CryptoAuthenticationLibrary/atcacert/atcacert_date.o
 .text.atcacert_date_enc_posix_uint32_be
                0x0000000000000000       0x60 build/AWS_IOT/production/mcc_generated_files/CryptoAuthenticationLibrary/atcacert/atcacert_date.o
 .text.atcacert_date_dec_posix_uint32_be
                0x0000000000000000       0x5e build/AWS_IOT/production/mcc_generated_files/CryptoAuthenticationLibrary/atcacert/atcacert_date.o
 .text.atcacert_date_enc_posix_uint32_le
                0x0000000000000000       0x60 build/AWS_IOT/production/mcc_generated_files/CryptoAuthenticationLibrary/atcacert/atcacert_date.o
 .text.atcacert_date_enc
                0x0000000000000000       0xd0 build/AWS_IOT/production/mcc_generated_files/CryptoAuthenticationLibrary/atcacert/atcacert_date.o
 .text.atcacert_date_dec_posix_uint32_le
                0x0000000000000000       0x5e build/AWS_IOT/production/mcc_generated_files/CryptoAuthenticationLibrary/atcacert/atcacert_date.o
 .text.atcacert_date_dec
                0x0000000000000000       0x94 build/AWS_IOT/production/mcc_generated_files/CryptoAuthenticationLibrary/atcacert/atcacert_date.o
 .text.atcacert_date_enc_compcert
                0x0000000000000000      0x13a build/AWS_IOT/production/mcc_generated_files/CryptoAuthenticationLibrary/atcacert/atcacert_date.o
 .text.atcacert_date_dec_compcert
                0x0000000000000000       0xfa build/AWS_IOT/production/mcc_generated_files/CryptoAuthenticationLibrary/atcacert/atcacert_date.o
 .rodata.month_secs.1917
                0x0000000000000000       0x30 build/AWS_IOT/production/mcc_generated_files/CryptoAuthenticationLibrary/atcacert/atcacert_date.o
 .rodata.ATCACERT_DATE_FORMAT_SIZES
                0x0000000000000000        0xa build/AWS_IOT/production/mcc_generated_files/CryptoAuthenticationLibrary/atcacert/atcacert_date.o
 .debug_info    0x0000000000000000     0x1856 build/AWS_IOT/production/mcc_generated_files/CryptoAuthenticationLibrary/atcacert/atcacert_date.o
 .debug_abbrev  0x0000000000000000      0x2f2 build/AWS_IOT/production/mcc_generated_files/CryptoAuthenticationLibrary/atcacert/atcacert_date.o
 .debug_loc     0x0000000000000000     0x2d19 build/AWS_IOT/production/mcc_generated_files/CryptoAuthenticationLibrary/atcacert/atcacert_date.o
 .debug_aranges
                0x0000000000000000       0xb8 build/AWS_IOT/production/mcc_generated_files/CryptoAuthenticationLibrary/atcacert/atcacert_date.o
 .debug_ranges  0x0000000000000000      0x110 build/AWS_IOT/production/mcc_generated_files/CryptoAuthenticationLibrary/atcacert/atcacert_date.o
 .debug_line    0x0000000000000000      0xe00 build/AWS_IOT/production/mcc_generated_files/CryptoAuthenticationLibrary/atcacert/atcacert_date.o
 .debug_str     0x0000000000000000       0x83 build/AWS_IOT/production/mcc_generated_files/CryptoAuthenticationLibrary/atcacert/atcacert_date.o
 .comment       0x0000000000000000       0x30 build/AWS_IOT/production/mcc_generated_files/CryptoAuthenticationLibrary/atcacert/atcacert_date.o
 .debug_frame   0x0000000000000000      0x374 build/AWS_IOT/production/mcc_generated_files/CryptoAuthenticationLibrary/atcacert/atcacert_date.o
 .text          0x0000000000000000        0x0 build/AWS_IOT/production/mcc_generated_files/CryptoAuthenticationLibrary/atcacert/atcacert_def.o
 .data          0x0000000000000000        0x0 build/AWS_IOT/production/mcc_generated_files/CryptoAuthenticationLibrary/atcacert/atcacert_def.o
 .bss           0x0000000000000000        0x0 build/AWS_IOT/production/mcc_generated_files/CryptoAuthenticationLibrary/atcacert/atcacert_def.o
 .text.atcacert_is_device_loc_match
                0x0000000000000000       0xb6 build/AWS_IOT/production/mcc_generated_files/CryptoAuthenticationLibrary/atcacert/atcacert_def.o
 .text.get_effective_offset
                0x0000000000000000       0x4e build/AWS_IOT/production/mcc_generated_files/CryptoAuthenticationLibrary/atcacert/atcacert_def.o
 .text.uint8_to_hex
                0x0000000000000000       0x32 build/AWS_IOT/production/mcc_generated_files/CryptoAuthenticationLibrary/atcacert/atcacert_def.o
 .text.hex_to_uint8
                0x0000000000000000       0x8a build/AWS_IOT/production/mcc_generated_files/CryptoAuthenticationLibrary/atcacert/atcacert_def.o
 .text.atcacert_copy_device_loc_data
                0x0000000000000000       0x6a build/AWS_IOT/production/mcc_generated_files/CryptoAuthenticationLibrary/atcacert/atcacert_def.o
 .text.atcacert_merge_device_loc
                0x0000000000000000      0x236 build/AWS_IOT/production/mcc_generated_files/CryptoAuthenticationLibrary/atcacert/atcacert_def.o
 .text.atcacert_get_device_locs
                0x0000000000000000      0x17e build/AWS_IOT/production/mcc_generated_files/CryptoAuthenticationLibrary/atcacert/atcacert_def.o
 .text.atcacert_is_device_loc_overlap
                0x0000000000000000       0x74 build/AWS_IOT/production/mcc_generated_files/CryptoAuthenticationLibrary/atcacert/atcacert_def.o
 .text.atcacert_get_tbs
                0x0000000000000000       0xb0 build/AWS_IOT/production/mcc_generated_files/CryptoAuthenticationLibrary/atcacert/atcacert_def.o
 .text.atcacert_get_tbs_digest
                0x0000000000000000       0x76 build/AWS_IOT/production/mcc_generated_files/CryptoAuthenticationLibrary/atcacert/atcacert_def.o
 .text.atcacert_set_cert_element
                0x0000000000000000       0xde build/AWS_IOT/production/mcc_generated_files/CryptoAuthenticationLibrary/atcacert/atcacert_def.o
 .text.atcacert_set_signature
                0x0000000000000000      0x17c build/AWS_IOT/production/mcc_generated_files/CryptoAuthenticationLibrary/atcacert/atcacert_def.o
 .text.atcacert_set_issue_date
                0x0000000000000000       0xbc build/AWS_IOT/production/mcc_generated_files/CryptoAuthenticationLibrary/atcacert/atcacert_def.o
 .text.atcacert_set_expire_date
                0x0000000000000000       0xbc build/AWS_IOT/production/mcc_generated_files/CryptoAuthenticationLibrary/atcacert/atcacert_def.o
 .text.atcacert_set_signer_id
                0x0000000000000000       0xa4 build/AWS_IOT/production/mcc_generated_files/CryptoAuthenticationLibrary/atcacert/atcacert_def.o
 .text.atcacert_set_comp_cert
                0x0000000000000000      0x15e build/AWS_IOT/production/mcc_generated_files/CryptoAuthenticationLibrary/atcacert/atcacert_def.o
 .text.atcacert_set_cert_sn
                0x0000000000000000      0x1e4 build/AWS_IOT/production/mcc_generated_files/CryptoAuthenticationLibrary/atcacert/atcacert_def.o
 .text.atcacert_set_auth_key_id_raw
                0x0000000000000000       0x4a build/AWS_IOT/production/mcc_generated_files/CryptoAuthenticationLibrary/atcacert/atcacert_def.o
 .text.atcacert_get_cert_element
                0x0000000000000000       0xb2 build/AWS_IOT/production/mcc_generated_files/CryptoAuthenticationLibrary/atcacert/atcacert_def.o
 .text.atcacert_get_subj_public_key
                0x0000000000000000       0x4c build/AWS_IOT/production/mcc_generated_files/CryptoAuthenticationLibrary/atcacert/atcacert_def.o
 .text.atcacert_get_subj_key_id
                0x0000000000000000       0x4e build/AWS_IOT/production/mcc_generated_files/CryptoAuthenticationLibrary/atcacert/atcacert_def.o
 .text.atcacert_get_signature
                0x0000000000000000       0xc0 build/AWS_IOT/production/mcc_generated_files/CryptoAuthenticationLibrary/atcacert/atcacert_def.o
 .text.atcacert_get_issue_date
                0x0000000000000000       0xbc build/AWS_IOT/production/mcc_generated_files/CryptoAuthenticationLibrary/atcacert/atcacert_def.o
 .text.atcacert_get_expire_date
                0x0000000000000000       0xbc build/AWS_IOT/production/mcc_generated_files/CryptoAuthenticationLibrary/atcacert/atcacert_def.o
 .text.atcacert_get_signer_id
                0x0000000000000000       0x8e build/AWS_IOT/production/mcc_generated_files/CryptoAuthenticationLibrary/atcacert/atcacert_def.o
 .text.atcacert_gen_cert_sn
                0x0000000000000000      0x26c build/AWS_IOT/production/mcc_generated_files/CryptoAuthenticationLibrary/atcacert/atcacert_def.o
 .progmem.gcc_sw_table.atcacert_gen_cert_sn
                0x0000000000000000       0x10 build/AWS_IOT/production/mcc_generated_files/CryptoAuthenticationLibrary/atcacert/atcacert_def.o
 .text.atcacert_cert_build_finish
                0x0000000000000000       0x36 build/AWS_IOT/production/mcc_generated_files/CryptoAuthenticationLibrary/atcacert/atcacert_def.o
 .text.atcacert_get_comp_cert
                0x0000000000000000      0x132 build/AWS_IOT/production/mcc_generated_files/CryptoAuthenticationLibrary/atcacert/atcacert_def.o
 .text.atcacert_get_cert_sn
                0x0000000000000000       0x78 build/AWS_IOT/production/mcc_generated_files/CryptoAuthenticationLibrary/atcacert/atcacert_def.o
 .text.atcacert_get_auth_key_id
                0x0000000000000000       0x4e build/AWS_IOT/production/mcc_generated_files/CryptoAuthenticationLibrary/atcacert/atcacert_def.o
 .text.atcacert_get_key_id
                0x0000000000000000       0x56 build/AWS_IOT/production/mcc_generated_files/CryptoAuthenticationLibrary/atcacert/atcacert_def.o
 .text.atcacert_set_subj_public_key
                0x0000000000000000       0xc0 build/AWS_IOT/production/mcc_generated_files/CryptoAuthenticationLibrary/atcacert/atcacert_def.o
 .text.atcacert_set_auth_key_id
                0x0000000000000000       0x9a build/AWS_IOT/production/mcc_generated_files/CryptoAuthenticationLibrary/atcacert/atcacert_def.o
 .text.atcacert_cert_build_start
                0x0000000000000000      0x15e build/AWS_IOT/production/mcc_generated_files/CryptoAuthenticationLibrary/atcacert/atcacert_def.o
 .text.atcacert_public_key_add_padding
                0x0000000000000000       0x52 build/AWS_IOT/production/mcc_generated_files/CryptoAuthenticationLibrary/atcacert/atcacert_def.o
 .text.atcacert_get_device_data
                0x0000000000000000      0x308 build/AWS_IOT/production/mcc_generated_files/CryptoAuthenticationLibrary/atcacert/atcacert_def.o
 .text.atcacert_public_key_remove_padding
                0x0000000000000000       0x38 build/AWS_IOT/production/mcc_generated_files/CryptoAuthenticationLibrary/atcacert/atcacert_def.o
 .text.atcacert_transform_data
                0x0000000000000000      0x13e build/AWS_IOT/production/mcc_generated_files/CryptoAuthenticationLibrary/atcacert/atcacert_def.o
 .progmem.gcc_sw_table.atcacert_transform_data
                0x0000000000000000       0x14 build/AWS_IOT/production/mcc_generated_files/CryptoAuthenticationLibrary/atcacert/atcacert_def.o
 .text.atcacert_cert_build_process
                0x0000000000000000      0x35e build/AWS_IOT/production/mcc_generated_files/CryptoAuthenticationLibrary/atcacert/atcacert_def.o
 .text.atcacert_max_cert_size
                0x0000000000000000       0x90 build/AWS_IOT/production/mcc_generated_files/CryptoAuthenticationLibrary/atcacert/atcacert_def.o
 .rodata.device_sn_dev_loc.3320
                0x0000000000000000        0x7 build/AWS_IOT/production/mcc_generated_files/CryptoAuthenticationLibrary/atcacert/atcacert_def.o
 .debug_info    0x0000000000000000     0x3fb8 build/AWS_IOT/production/mcc_generated_files/CryptoAuthenticationLibrary/atcacert/atcacert_def.o
 .debug_abbrev  0x0000000000000000      0x2c1 build/AWS_IOT/production/mcc_generated_files/CryptoAuthenticationLibrary/atcacert/atcacert_def.o
 .debug_loc     0x0000000000000000     0x4b1b build/AWS_IOT/production/mcc_generated_files/CryptoAuthenticationLibrary/atcacert/atcacert_def.o
 .debug_aranges
                0x0000000000000000      0x158 build/AWS_IOT/production/mcc_generated_files/CryptoAuthenticationLibrary/atcacert/atcacert_def.o
 .debug_ranges  0x0000000000000000      0x1a8 build/AWS_IOT/production/mcc_generated_files/CryptoAuthenticationLibrary/atcacert/atcacert_def.o
 .debug_line    0x0000000000000000     0x16a2 build/AWS_IOT/production/mcc_generated_files/CryptoAuthenticationLibrary/atcacert/atcacert_def.o
 .debug_str     0x0000000000000000      0x2d6 build/AWS_IOT/production/mcc_generated_files/CryptoAuthenticationLibrary/atcacert/atcacert_def.o
 .comment       0x0000000000000000       0x30 build/AWS_IOT/production/mcc_generated_files/CryptoAuthenticationLibrary/atcacert/atcacert_def.o
 .debug_frame   0x0000000000000000      0x9f8 build/AWS_IOT/production/mcc_generated_files/CryptoAuthenticationLibrary/atcacert/atcacert_def.o
 .text          0x0000000000000000        0x0 build/AWS_IOT/production/mcc_generated_files/CryptoAuthenticationLibrary/atcacert/atcacert_der.o
 .data          0x0000000000000000        0x0 build/AWS_IOT/production/mcc_generated_files/CryptoAuthenticationLibrary/atcacert/atcacert_der.o
 .bss           0x0000000000000000        0x0 build/AWS_IOT/production/mcc_generated_files/CryptoAuthenticationLibrary/atcacert/atcacert_der.o
 .text.atcacert_der_enc_length
                0x0000000000000000      0x10c build/AWS_IOT/production/mcc_generated_files/CryptoAuthenticationLibrary/atcacert/atcacert_der.o
 .text.atcacert_der_dec_length
                0x0000000000000000      0x136 build/AWS_IOT/production/mcc_generated_files/CryptoAuthenticationLibrary/atcacert/atcacert_der.o
 .text.atcacert_der_adjust_length
                0x0000000000000000      0x100 build/AWS_IOT/production/mcc_generated_files/CryptoAuthenticationLibrary/atcacert/atcacert_der.o
 .text.atcacert_der_enc_integer
                0x0000000000000000      0x1a8 build/AWS_IOT/production/mcc_generated_files/CryptoAuthenticationLibrary/atcacert/atcacert_der.o
 .text.atcacert_der_dec_integer
                0x0000000000000000      0x170 build/AWS_IOT/production/mcc_generated_files/CryptoAuthenticationLibrary/atcacert/atcacert_der.o
 .text.atcacert_der_enc_ecdsa_sig_value
                0x0000000000000000      0x132 build/AWS_IOT/production/mcc_generated_files/CryptoAuthenticationLibrary/atcacert/atcacert_der.o
 .text.atcacert_der_dec_ecdsa_sig_value
                0x0000000000000000      0x370 build/AWS_IOT/production/mcc_generated_files/CryptoAuthenticationLibrary/atcacert/atcacert_der.o
 .debug_info    0x0000000000000000      0xbd2 build/AWS_IOT/production/mcc_generated_files/CryptoAuthenticationLibrary/atcacert/atcacert_der.o
 .debug_abbrev  0x0000000000000000      0x175 build/AWS_IOT/production/mcc_generated_files/CryptoAuthenticationLibrary/atcacert/atcacert_der.o
 .debug_loc     0x0000000000000000      0xe04 build/AWS_IOT/production/mcc_generated_files/CryptoAuthenticationLibrary/atcacert/atcacert_der.o
 .debug_aranges
                0x0000000000000000       0x50 build/AWS_IOT/production/mcc_generated_files/CryptoAuthenticationLibrary/atcacert/atcacert_der.o
 .debug_ranges  0x0000000000000000       0x58 build/AWS_IOT/production/mcc_generated_files/CryptoAuthenticationLibrary/atcacert/atcacert_der.o
 .debug_line    0x0000000000000000      0x748 build/AWS_IOT/production/mcc_generated_files/CryptoAuthenticationLibrary/atcacert/atcacert_der.o
 .debug_str     0x0000000000000000       0x4c build/AWS_IOT/production/mcc_generated_files/CryptoAuthenticationLibrary/atcacert/atcacert_der.o
 .comment       0x0000000000000000       0x30 build/AWS_IOT/production/mcc_generated_files/CryptoAuthenticationLibrary/atcacert/atcacert_der.o
 .debug_frame   0x0000000000000000      0x278 build/AWS_IOT/production/mcc_generated_files/CryptoAuthenticationLibrary/atcacert/atcacert_der.o
 .text          0x0000000000000000        0x0 build/AWS_IOT/production/mcc_generated_files/CryptoAuthenticationLibrary/atcacert/atcacert_host_hw.o
 .data          0x0000000000000000        0x0 build/AWS_IOT/production/mcc_generated_files/CryptoAuthenticationLibrary/atcacert/atcacert_host_hw.o
 .bss           0x0000000000000000        0x0 build/AWS_IOT/production/mcc_generated_files/CryptoAuthenticationLibrary/atcacert/atcacert_host_hw.o
 .text.atcacert_verify_cert_hw
                0x0000000000000000       0xc0 build/AWS_IOT/production/mcc_generated_files/CryptoAuthenticationLibrary/atcacert/atcacert_host_hw.o
 .text.atcacert_gen_challenge_hw
                0x0000000000000000       0x12 build/AWS_IOT/production/mcc_generated_files/CryptoAuthenticationLibrary/atcacert/atcacert_host_hw.o
 .text.atcacert_verify_response_hw
                0x0000000000000000       0x60 build/AWS_IOT/production/mcc_generated_files/CryptoAuthenticationLibrary/atcacert/atcacert_host_hw.o
 .debug_info    0x0000000000000000      0xfd9 build/AWS_IOT/production/mcc_generated_files/CryptoAuthenticationLibrary/atcacert/atcacert_host_hw.o
 .debug_abbrev  0x0000000000000000      0x146 build/AWS_IOT/production/mcc_generated_files/CryptoAuthenticationLibrary/atcacert/atcacert_host_hw.o
 .debug_loc     0x0000000000000000      0x39e build/AWS_IOT/production/mcc_generated_files/CryptoAuthenticationLibrary/atcacert/atcacert_host_hw.o
 .debug_aranges
                0x0000000000000000       0x30 build/AWS_IOT/production/mcc_generated_files/CryptoAuthenticationLibrary/atcacert/atcacert_host_hw.o
 .debug_ranges  0x0000000000000000       0x20 build/AWS_IOT/production/mcc_generated_files/CryptoAuthenticationLibrary/atcacert/atcacert_host_hw.o
 .debug_line    0x0000000000000000      0x28d build/AWS_IOT/production/mcc_generated_files/CryptoAuthenticationLibrary/atcacert/atcacert_host_hw.o
 .debug_str     0x0000000000000000       0x66 build/AWS_IOT/production/mcc_generated_files/CryptoAuthenticationLibrary/atcacert/atcacert_host_hw.o
 .comment       0x0000000000000000       0x30 build/AWS_IOT/production/mcc_generated_files/CryptoAuthenticationLibrary/atcacert/atcacert_host_hw.o
 .debug_frame   0x0000000000000000       0x8c build/AWS_IOT/production/mcc_generated_files/CryptoAuthenticationLibrary/atcacert/atcacert_host_hw.o
 .text          0x0000000000000000        0x0 build/AWS_IOT/production/mcc_generated_files/CryptoAuthenticationLibrary/atcacert/atcacert_host_sw.o
 .data          0x0000000000000000        0x0 build/AWS_IOT/production/mcc_generated_files/CryptoAuthenticationLibrary/atcacert/atcacert_host_sw.o
 .bss           0x0000000000000000        0x0 build/AWS_IOT/production/mcc_generated_files/CryptoAuthenticationLibrary/atcacert/atcacert_host_sw.o
 .text.atcacert_verify_cert_sw
                0x0000000000000000       0x9a build/AWS_IOT/production/mcc_generated_files/CryptoAuthenticationLibrary/atcacert/atcacert_host_sw.o
 .text.atcacert_gen_challenge_sw
                0x0000000000000000       0x14 build/AWS_IOT/production/mcc_generated_files/CryptoAuthenticationLibrary/atcacert/atcacert_host_sw.o
 .text.atcacert_verify_response_sw
                0x0000000000000000       0x32 build/AWS_IOT/production/mcc_generated_files/CryptoAuthenticationLibrary/atcacert/atcacert_host_sw.o
 .debug_info    0x0000000000000000      0xcb3 build/AWS_IOT/production/mcc_generated_files/CryptoAuthenticationLibrary/atcacert/atcacert_host_sw.o
 .debug_abbrev  0x0000000000000000      0x128 build/AWS_IOT/production/mcc_generated_files/CryptoAuthenticationLibrary/atcacert/atcacert_host_sw.o
 .debug_loc     0x0000000000000000      0x2f4 build/AWS_IOT/production/mcc_generated_files/CryptoAuthenticationLibrary/atcacert/atcacert_host_sw.o
 .debug_aranges
                0x0000000000000000       0x30 build/AWS_IOT/production/mcc_generated_files/CryptoAuthenticationLibrary/atcacert/atcacert_host_sw.o
 .debug_ranges  0x0000000000000000       0x20 build/AWS_IOT/production/mcc_generated_files/CryptoAuthenticationLibrary/atcacert/atcacert_host_sw.o
 .debug_line    0x0000000000000000      0x240 build/AWS_IOT/production/mcc_generated_files/CryptoAuthenticationLibrary/atcacert/atcacert_host_sw.o
 .debug_str     0x0000000000000000       0x64 build/AWS_IOT/production/mcc_generated_files/CryptoAuthenticationLibrary/atcacert/atcacert_host_sw.o
 .comment       0x0000000000000000       0x30 build/AWS_IOT/production/mcc_generated_files/CryptoAuthenticationLibrary/atcacert/atcacert_host_sw.o
 .debug_frame   0x0000000000000000       0x7c build/AWS_IOT/production/mcc_generated_files/CryptoAuthenticationLibrary/atcacert/atcacert_host_sw.o
 .text          0x0000000000000000        0x0 build/AWS_IOT/production/mcc_generated_files/CryptoAuthenticationLibrary/atcacert/atcacert_pem.o
 .data          0x0000000000000000        0x0 build/AWS_IOT/production/mcc_generated_files/CryptoAuthenticationLibrary/atcacert/atcacert_pem.o
 .bss           0x0000000000000000        0x0 build/AWS_IOT/production/mcc_generated_files/CryptoAuthenticationLibrary/atcacert/atcacert_pem.o
 .text.atcacert_encode_pem
                0x0000000000000000      0x198 build/AWS_IOT/production/mcc_generated_files/CryptoAuthenticationLibrary/atcacert/atcacert_pem.o
 .text.atcacert_decode_pem
                0x0000000000000000       0xda build/AWS_IOT/production/mcc_generated_files/CryptoAuthenticationLibrary/atcacert/atcacert_pem.o
 .rodata        0x0000000000000000       0x7c build/AWS_IOT/production/mcc_generated_files/CryptoAuthenticationLibrary/atcacert/atcacert_pem.o
 .text.atcacert_encode_pem_cert
                0x0000000000000000       0x26 build/AWS_IOT/production/mcc_generated_files/CryptoAuthenticationLibrary/atcacert/atcacert_pem.o
 .text.atcacert_encode_pem_csr
                0x0000000000000000       0x26 build/AWS_IOT/production/mcc_generated_files/CryptoAuthenticationLibrary/atcacert/atcacert_pem.o
 .text.atcacert_decode_pem_cert
                0x0000000000000000       0x26 build/AWS_IOT/production/mcc_generated_files/CryptoAuthenticationLibrary/atcacert/atcacert_pem.o
 .text.atcacert_decode_pem_csr
                0x0000000000000000       0x26 build/AWS_IOT/production/mcc_generated_files/CryptoAuthenticationLibrary/atcacert/atcacert_pem.o
 .debug_info    0x0000000000000000      0xc1a build/AWS_IOT/production/mcc_generated_files/CryptoAuthenticationLibrary/atcacert/atcacert_pem.o
 .debug_abbrev  0x0000000000000000      0x104 build/AWS_IOT/production/mcc_generated_files/CryptoAuthenticationLibrary/atcacert/atcacert_pem.o
 .debug_loc     0x0000000000000000      0x91d build/AWS_IOT/production/mcc_generated_files/CryptoAuthenticationLibrary/atcacert/atcacert_pem.o
 .debug_aranges
                0x0000000000000000       0x48 build/AWS_IOT/production/mcc_generated_files/CryptoAuthenticationLibrary/atcacert/atcacert_pem.o
 .debug_ranges  0x0000000000000000       0x38 build/AWS_IOT/production/mcc_generated_files/CryptoAuthenticationLibrary/atcacert/atcacert_pem.o
 .debug_line    0x0000000000000000      0x39b build/AWS_IOT/production/mcc_generated_files/CryptoAuthenticationLibrary/atcacert/atcacert_pem.o
 .debug_str     0x0000000000000000       0x80 build/AWS_IOT/production/mcc_generated_files/CryptoAuthenticationLibrary/atcacert/atcacert_pem.o
 .comment       0x0000000000000000       0x30 build/AWS_IOT/production/mcc_generated_files/CryptoAuthenticationLibrary/atcacert/atcacert_pem.o
 .debug_frame   0x0000000000000000      0x160 build/AWS_IOT/production/mcc_generated_files/CryptoAuthenticationLibrary/atcacert/atcacert_pem.o
 .text          0x0000000000000000        0x0 build/AWS_IOT/production/mcc_generated_files/CryptoAuthenticationLibrary/basic/atca_basic.o
 .data          0x0000000000000000        0x0 build/AWS_IOT/production/mcc_generated_files/CryptoAuthenticationLibrary/basic/atca_basic.o
 .bss           0x0000000000000000        0x0 build/AWS_IOT/production/mcc_generated_files/CryptoAuthenticationLibrary/basic/atca_basic.o
 .rodata        0x0000000000000000        0x9 build/AWS_IOT/production/mcc_generated_files/CryptoAuthenticationLibrary/basic/atca_basic.o
 .text.atcab_version
                0x0000000000000000       0x14 build/AWS_IOT/production/mcc_generated_files/CryptoAuthenticationLibrary/basic/atca_basic.o
 .text.atcab_init_device
                0x0000000000000000       0x48 build/AWS_IOT/production/mcc_generated_files/CryptoAuthenticationLibrary/basic/atca_basic.o
 .text.atcab_get_device
                0x0000000000000000        0xa build/AWS_IOT/production/mcc_generated_files/CryptoAuthenticationLibrary/basic/atca_basic.o
 .text.atcab_get_device_type
                0x0000000000000000       0x20 build/AWS_IOT/production/mcc_generated_files/CryptoAuthenticationLibrary/basic/atca_basic.o
 .text.atcab_wakeup
                0x0000000000000000       0x1a build/AWS_IOT/production/mcc_generated_files/CryptoAuthenticationLibrary/basic/atca_basic.o
 .text.atcab_idle
                0x0000000000000000       0x1a build/AWS_IOT/production/mcc_generated_files/CryptoAuthenticationLibrary/basic/atca_basic.o
 .text.atcab_sleep
                0x0000000000000000       0x1a build/AWS_IOT/production/mcc_generated_files/CryptoAuthenticationLibrary/basic/atca_basic.o
 .text.atcab_cfg_discover
                0x0000000000000000       0xc8 build/AWS_IOT/production/mcc_generated_files/CryptoAuthenticationLibrary/basic/atca_basic.o
 .text._atcab_exit
                0x0000000000000000        0x6 build/AWS_IOT/production/mcc_generated_files/CryptoAuthenticationLibrary/basic/atca_basic.o
 .rodata.atca_version
                0x0000000000000000        0x9 build/AWS_IOT/production/mcc_generated_files/CryptoAuthenticationLibrary/basic/atca_basic.o
 .text          0x0000000000000000        0x0 build/AWS_IOT/production/mcc_generated_files/CryptoAuthenticationLibrary/basic/atca_basic_checkmac.o
 .data          0x0000000000000000        0x0 build/AWS_IOT/production/mcc_generated_files/CryptoAuthenticationLibrary/basic/atca_basic_checkmac.o
 .bss           0x0000000000000000        0x0 build/AWS_IOT/production/mcc_generated_files/CryptoAuthenticationLibrary/basic/atca_basic_checkmac.o
 .text.atcab_checkmac
                0x0000000000000000       0xdc build/AWS_IOT/production/mcc_generated_files/CryptoAuthenticationLibrary/basic/atca_basic_checkmac.o
 .debug_info    0x0000000000000000      0xda8 build/AWS_IOT/production/mcc_generated_files/CryptoAuthenticationLibrary/basic/atca_basic_checkmac.o
 .debug_abbrev  0x0000000000000000      0x15f build/AWS_IOT/production/mcc_generated_files/CryptoAuthenticationLibrary/basic/atca_basic_checkmac.o
 .debug_loc     0x0000000000000000      0x1d2 build/AWS_IOT/production/mcc_generated_files/CryptoAuthenticationLibrary/basic/atca_basic_checkmac.o
 .debug_aranges
                0x0000000000000000       0x20 build/AWS_IOT/production/mcc_generated_files/CryptoAuthenticationLibrary/basic/atca_basic_checkmac.o
 .debug_ranges  0x0000000000000000       0x10 build/AWS_IOT/production/mcc_generated_files/CryptoAuthenticationLibrary/basic/atca_basic_checkmac.o
 .debug_line    0x0000000000000000      0x1e0 build/AWS_IOT/production/mcc_generated_files/CryptoAuthenticationLibrary/basic/atca_basic_checkmac.o
 .debug_str     0x0000000000000000       0x20 build/AWS_IOT/production/mcc_generated_files/CryptoAuthenticationLibrary/basic/atca_basic_checkmac.o
 .comment       0x0000000000000000       0x30 build/AWS_IOT/production/mcc_generated_files/CryptoAuthenticationLibrary/basic/atca_basic_checkmac.o
 .debug_frame   0x0000000000000000       0x4c build/AWS_IOT/production/mcc_generated_files/CryptoAuthenticationLibrary/basic/atca_basic_checkmac.o
 .text          0x0000000000000000        0x0 build/AWS_IOT/production/mcc_generated_files/CryptoAuthenticationLibrary/basic/atca_basic_counter.o
 .data          0x0000000000000000        0x0 build/AWS_IOT/production/mcc_generated_files/CryptoAuthenticationLibrary/basic/atca_basic_counter.o
 .bss           0x0000000000000000        0x0 build/AWS_IOT/production/mcc_generated_files/CryptoAuthenticationLibrary/basic/atca_basic_counter.o
 .text.atcab_counter
                0x0000000000000000       0xa2 build/AWS_IOT/production/mcc_generated_files/CryptoAuthenticationLibrary/basic/atca_basic_counter.o
 .text.atcab_counter_increment
                0x0000000000000000        0xc build/AWS_IOT/production/mcc_generated_files/CryptoAuthenticationLibrary/basic/atca_basic_counter.o
 .text.atcab_counter_read
                0x0000000000000000        0xc build/AWS_IOT/production/mcc_generated_files/CryptoAuthenticationLibrary/basic/atca_basic_counter.o
 .debug_info    0x0000000000000000      0xe46 build/AWS_IOT/production/mcc_generated_files/CryptoAuthenticationLibrary/basic/atca_basic_counter.o
 .debug_abbrev  0x0000000000000000      0x174 build/AWS_IOT/production/mcc_generated_files/CryptoAuthenticationLibrary/basic/atca_basic_counter.o
 .debug_loc     0x0000000000000000      0x207 build/AWS_IOT/production/mcc_generated_files/CryptoAuthenticationLibrary/basic/atca_basic_counter.o
 .debug_aranges
                0x0000000000000000       0x30 build/AWS_IOT/production/mcc_generated_files/CryptoAuthenticationLibrary/basic/atca_basic_counter.o
 .debug_ranges  0x0000000000000000       0x20 build/AWS_IOT/production/mcc_generated_files/CryptoAuthenticationLibrary/basic/atca_basic_counter.o
 .debug_line    0x0000000000000000      0x1ef build/AWS_IOT/production/mcc_generated_files/CryptoAuthenticationLibrary/basic/atca_basic_counter.o
 .debug_str     0x0000000000000000       0x38 build/AWS_IOT/production/mcc_generated_files/CryptoAuthenticationLibrary/basic/atca_basic_counter.o
 .comment       0x0000000000000000       0x30 build/AWS_IOT/production/mcc_generated_files/CryptoAuthenticationLibrary/basic/atca_basic_counter.o
 .debug_frame   0x0000000000000000       0x60 build/AWS_IOT/production/mcc_generated_files/CryptoAuthenticationLibrary/basic/atca_basic_counter.o
 .text          0x0000000000000000        0x0 build/AWS_IOT/production/mcc_generated_files/CryptoAuthenticationLibrary/basic/atca_basic_derivekey.o
 .data          0x0000000000000000        0x0 build/AWS_IOT/production/mcc_generated_files/CryptoAuthenticationLibrary/basic/atca_basic_derivekey.o
 .bss           0x0000000000000000        0x0 build/AWS_IOT/production/mcc_generated_files/CryptoAuthenticationLibrary/basic/atca_basic_derivekey.o
 .text.atcab_derivekey
                0x0000000000000000       0x78 build/AWS_IOT/production/mcc_generated_files/CryptoAuthenticationLibrary/basic/atca_basic_derivekey.o
 .debug_info    0x0000000000000000      0xd7e build/AWS_IOT/production/mcc_generated_files/CryptoAuthenticationLibrary/basic/atca_basic_derivekey.o
 .debug_abbrev  0x0000000000000000      0x15f build/AWS_IOT/production/mcc_generated_files/CryptoAuthenticationLibrary/basic/atca_basic_derivekey.o
 .debug_loc     0x0000000000000000       0xda build/AWS_IOT/production/mcc_generated_files/CryptoAuthenticationLibrary/basic/atca_basic_derivekey.o
 .debug_aranges
                0x0000000000000000       0x20 build/AWS_IOT/production/mcc_generated_files/CryptoAuthenticationLibrary/basic/atca_basic_derivekey.o
 .debug_ranges  0x0000000000000000       0x10 build/AWS_IOT/production/mcc_generated_files/CryptoAuthenticationLibrary/basic/atca_basic_derivekey.o
 .debug_line    0x0000000000000000      0x193 build/AWS_IOT/production/mcc_generated_files/CryptoAuthenticationLibrary/basic/atca_basic_derivekey.o
 .debug_str     0x0000000000000000       0x21 build/AWS_IOT/production/mcc_generated_files/CryptoAuthenticationLibrary/basic/atca_basic_derivekey.o
 .comment       0x0000000000000000       0x30 build/AWS_IOT/production/mcc_generated_files/CryptoAuthenticationLibrary/basic/atca_basic_derivekey.o
 .debug_frame   0x0000000000000000       0x40 build/AWS_IOT/production/mcc_generated_files/CryptoAuthenticationLibrary/basic/atca_basic_derivekey.o
 .text          0x0000000000000000        0x0 build/AWS_IOT/production/mcc_generated_files/CryptoAuthenticationLibrary/basic/atca_basic_ecdh.o
 .data          0x0000000000000000        0x0 build/AWS_IOT/production/mcc_generated_files/CryptoAuthenticationLibrary/basic/atca_basic_ecdh.o
 .bss           0x0000000000000000        0x0 build/AWS_IOT/production/mcc_generated_files/CryptoAuthenticationLibrary/basic/atca_basic_ecdh.o
 .rodata        0x0000000000000000       0x73 build/AWS_IOT/production/mcc_generated_files/CryptoAuthenticationLibrary/basic/atca_basic_ecdh.o
 .text.atcab_ecdh_enc
                0x0000000000000000       0xae build/AWS_IOT/production/mcc_generated_files/CryptoAuthenticationLibrary/basic/atca_basic_ecdh.o
 .text.atcab_ecdh_ioenc
                0x0000000000000000       0x72 build/AWS_IOT/production/mcc_generated_files/CryptoAuthenticationLibrary/basic/atca_basic_ecdh.o
 .text.atcab_ecdh_tempkey
                0x0000000000000000       0x1c build/AWS_IOT/production/mcc_generated_files/CryptoAuthenticationLibrary/basic/atca_basic_ecdh.o
 .text.atcab_ecdh_tempkey_ioenc
                0x0000000000000000       0x74 build/AWS_IOT/production/mcc_generated_files/CryptoAuthenticationLibrary/basic/atca_basic_ecdh.o
 .text          0x0000000000000000        0x0 build/AWS_IOT/production/mcc_generated_files/CryptoAuthenticationLibrary/basic/atca_basic_gendig.o
 .data          0x0000000000000000        0x0 build/AWS_IOT/production/mcc_generated_files/CryptoAuthenticationLibrary/basic/atca_basic_gendig.o
 .bss           0x0000000000000000        0x0 build/AWS_IOT/production/mcc_generated_files/CryptoAuthenticationLibrary/basic/atca_basic_gendig.o
 .text.atcab_gendig
                0x0000000000000000       0xbc build/AWS_IOT/production/mcc_generated_files/CryptoAuthenticationLibrary/basic/atca_basic_gendig.o
 .debug_info    0x0000000000000000      0xdb8 build/AWS_IOT/production/mcc_generated_files/CryptoAuthenticationLibrary/basic/atca_basic_gendig.o
 .debug_abbrev  0x0000000000000000      0x15f build/AWS_IOT/production/mcc_generated_files/CryptoAuthenticationLibrary/basic/atca_basic_gendig.o
 .debug_loc     0x0000000000000000      0x27f build/AWS_IOT/production/mcc_generated_files/CryptoAuthenticationLibrary/basic/atca_basic_gendig.o
 .debug_aranges
                0x0000000000000000       0x20 build/AWS_IOT/production/mcc_generated_files/CryptoAuthenticationLibrary/basic/atca_basic_gendig.o
 .debug_ranges  0x0000000000000000       0x10 build/AWS_IOT/production/mcc_generated_files/CryptoAuthenticationLibrary/basic/atca_basic_gendig.o
 .debug_line    0x0000000000000000      0x1f6 build/AWS_IOT/production/mcc_generated_files/CryptoAuthenticationLibrary/basic/atca_basic_gendig.o
 .debug_str     0x0000000000000000       0x1e build/AWS_IOT/production/mcc_generated_files/CryptoAuthenticationLibrary/basic/atca_basic_gendig.o
 .comment       0x0000000000000000       0x30 build/AWS_IOT/production/mcc_generated_files/CryptoAuthenticationLibrary/basic/atca_basic_gendig.o
 .debug_frame   0x0000000000000000       0x40 build/AWS_IOT/production/mcc_generated_files/CryptoAuthenticationLibrary/basic/atca_basic_gendig.o
 .text          0x0000000000000000        0x0 build/AWS_IOT/production/mcc_generated_files/CryptoAuthenticationLibrary/basic/atca_basic_genkey.o
 .data          0x0000000000000000        0x0 build/AWS_IOT/production/mcc_generated_files/CryptoAuthenticationLibrary/basic/atca_basic_genkey.o
 .bss           0x0000000000000000        0x0 build/AWS_IOT/production/mcc_generated_files/CryptoAuthenticationLibrary/basic/atca_basic_genkey.o
 .text.atcab_get_pubkey
                0x0000000000000000       0x10 build/AWS_IOT/production/mcc_generated_files/CryptoAuthenticationLibrary/basic/atca_basic_genkey.o
 .text          0x0000000000000000        0x0 build/AWS_IOT/production/mcc_generated_files/CryptoAuthenticationLibrary/basic/atca_basic_hmac.o
 .data          0x0000000000000000        0x0 build/AWS_IOT/production/mcc_generated_files/CryptoAuthenticationLibrary/basic/atca_basic_hmac.o
 .bss           0x0000000000000000        0x0 build/AWS_IOT/production/mcc_generated_files/CryptoAuthenticationLibrary/basic/atca_basic_hmac.o
 .text.atcab_hmac
                0x0000000000000000       0x82 build/AWS_IOT/production/mcc_generated_files/CryptoAuthenticationLibrary/basic/atca_basic_hmac.o
 .debug_info    0x0000000000000000      0xd5f build/AWS_IOT/production/mcc_generated_files/CryptoAuthenticationLibrary/basic/atca_basic_hmac.o
 .debug_abbrev  0x0000000000000000      0x177 build/AWS_IOT/production/mcc_generated_files/CryptoAuthenticationLibrary/basic/atca_basic_hmac.o
 .debug_loc     0x0000000000000000      0x12f build/AWS_IOT/production/mcc_generated_files/CryptoAuthenticationLibrary/basic/atca_basic_hmac.o
 .debug_aranges
                0x0000000000000000       0x20 build/AWS_IOT/production/mcc_generated_files/CryptoAuthenticationLibrary/basic/atca_basic_hmac.o
 .debug_ranges  0x0000000000000000       0x10 build/AWS_IOT/production/mcc_generated_files/CryptoAuthenticationLibrary/basic/atca_basic_hmac.o
 .debug_line    0x0000000000000000      0x1a0 build/AWS_IOT/production/mcc_generated_files/CryptoAuthenticationLibrary/basic/atca_basic_hmac.o
 .debug_str     0x0000000000000000       0x15 build/AWS_IOT/production/mcc_generated_files/CryptoAuthenticationLibrary/basic/atca_basic_hmac.o
 .comment       0x0000000000000000       0x30 build/AWS_IOT/production/mcc_generated_files/CryptoAuthenticationLibrary/basic/atca_basic_hmac.o
 .debug_frame   0x0000000000000000       0x40 build/AWS_IOT/production/mcc_generated_files/CryptoAuthenticationLibrary/basic/atca_basic_hmac.o
 .text          0x0000000000000000        0x0 build/AWS_IOT/production/mcc_generated_files/CryptoAuthenticationLibrary/basic/atca_basic_info.o
 .data          0x0000000000000000        0x0 build/AWS_IOT/production/mcc_generated_files/CryptoAuthenticationLibrary/basic/atca_basic_info.o
 .bss           0x0000000000000000        0x0 build/AWS_IOT/production/mcc_generated_files/CryptoAuthenticationLibrary/basic/atca_basic_info.o
 .text.atcab_info_base
                0x0000000000000000       0x7c build/AWS_IOT/production/mcc_generated_files/CryptoAuthenticationLibrary/basic/atca_basic_info.o
 .text.atcab_info
                0x0000000000000000       0x16 build/AWS_IOT/production/mcc_generated_files/CryptoAuthenticationLibrary/basic/atca_basic_info.o
 .text.atcab_info_get_latch
                0x0000000000000000       0x4c build/AWS_IOT/production/mcc_generated_files/CryptoAuthenticationLibrary/basic/atca_basic_info.o
 .text.atcab_info_set_latch
                0x0000000000000000       0x12 build/AWS_IOT/production/mcc_generated_files/CryptoAuthenticationLibrary/basic/atca_basic_info.o
 .debug_info    0x0000000000000000      0xec5 build/AWS_IOT/production/mcc_generated_files/CryptoAuthenticationLibrary/basic/atca_basic_info.o
 .debug_abbrev  0x0000000000000000      0x1a6 build/AWS_IOT/production/mcc_generated_files/CryptoAuthenticationLibrary/basic/atca_basic_info.o
 .debug_loc     0x0000000000000000      0x1ef build/AWS_IOT/production/mcc_generated_files/CryptoAuthenticationLibrary/basic/atca_basic_info.o
 .debug_aranges
                0x0000000000000000       0x38 build/AWS_IOT/production/mcc_generated_files/CryptoAuthenticationLibrary/basic/atca_basic_info.o
 .debug_ranges  0x0000000000000000       0x28 build/AWS_IOT/production/mcc_generated_files/CryptoAuthenticationLibrary/basic/atca_basic_info.o
 .debug_line    0x0000000000000000      0x21b build/AWS_IOT/production/mcc_generated_files/CryptoAuthenticationLibrary/basic/atca_basic_info.o
 .debug_str     0x0000000000000000       0x25 build/AWS_IOT/production/mcc_generated_files/CryptoAuthenticationLibrary/basic/atca_basic_info.o
 .comment       0x0000000000000000       0x30 build/AWS_IOT/production/mcc_generated_files/CryptoAuthenticationLibrary/basic/atca_basic_info.o
 .debug_frame   0x0000000000000000       0x8c build/AWS_IOT/production/mcc_generated_files/CryptoAuthenticationLibrary/basic/atca_basic_info.o
 .text          0x0000000000000000        0x0 build/AWS_IOT/production/mcc_generated_files/CryptoAuthenticationLibrary/basic/atca_basic_kdf.o
 .data          0x0000000000000000        0x0 build/AWS_IOT/production/mcc_generated_files/CryptoAuthenticationLibrary/basic/atca_basic_kdf.o
 .bss           0x0000000000000000        0x0 build/AWS_IOT/production/mcc_generated_files/CryptoAuthenticationLibrary/basic/atca_basic_kdf.o
 .text.atcab_kdf
                0x0000000000000000      0x13a build/AWS_IOT/production/mcc_generated_files/CryptoAuthenticationLibrary/basic/atca_basic_kdf.o
 .debug_info    0x0000000000000000      0xe32 build/AWS_IOT/production/mcc_generated_files/CryptoAuthenticationLibrary/basic/atca_basic_kdf.o
 .debug_abbrev  0x0000000000000000      0x18c build/AWS_IOT/production/mcc_generated_files/CryptoAuthenticationLibrary/basic/atca_basic_kdf.o
 .debug_loc     0x0000000000000000      0x262 build/AWS_IOT/production/mcc_generated_files/CryptoAuthenticationLibrary/basic/atca_basic_kdf.o
 .debug_aranges
                0x0000000000000000       0x20 build/AWS_IOT/production/mcc_generated_files/CryptoAuthenticationLibrary/basic/atca_basic_kdf.o
 .debug_ranges  0x0000000000000000       0x10 build/AWS_IOT/production/mcc_generated_files/CryptoAuthenticationLibrary/basic/atca_basic_kdf.o
 .debug_line    0x0000000000000000      0x212 build/AWS_IOT/production/mcc_generated_files/CryptoAuthenticationLibrary/basic/atca_basic_kdf.o
 .debug_str     0x0000000000000000       0x15 build/AWS_IOT/production/mcc_generated_files/CryptoAuthenticationLibrary/basic/atca_basic_kdf.o
 .comment       0x0000000000000000       0x30 build/AWS_IOT/production/mcc_generated_files/CryptoAuthenticationLibrary/basic/atca_basic_kdf.o
 .debug_frame   0x0000000000000000       0x74 build/AWS_IOT/production/mcc_generated_files/CryptoAuthenticationLibrary/basic/atca_basic_kdf.o
 .text          0x0000000000000000        0x0 build/AWS_IOT/production/mcc_generated_files/CryptoAuthenticationLibrary/basic/atca_basic_lock.o
 .data          0x0000000000000000        0x0 build/AWS_IOT/production/mcc_generated_files/CryptoAuthenticationLibrary/basic/atca_basic_lock.o
 .bss           0x0000000000000000        0x0 build/AWS_IOT/production/mcc_generated_files/CryptoAuthenticationLibrary/basic/atca_basic_lock.o
 .text.atcab_lock_config_zone_crc
                0x0000000000000000        0xa build/AWS_IOT/production/mcc_generated_files/CryptoAuthenticationLibrary/basic/atca_basic_lock.o
 .text.atcab_lock_data_zone_crc
                0x0000000000000000        0xa build/AWS_IOT/production/mcc_generated_files/CryptoAuthenticationLibrary/basic/atca_basic_lock.o
 .text          0x0000000000000000        0x0 build/AWS_IOT/production/mcc_generated_files/CryptoAuthenticationLibrary/basic/atca_basic_mac.o
 .data          0x0000000000000000        0x0 build/AWS_IOT/production/mcc_generated_files/CryptoAuthenticationLibrary/basic/atca_basic_mac.o
 .bss           0x0000000000000000        0x0 build/AWS_IOT/production/mcc_generated_files/CryptoAuthenticationLibrary/basic/atca_basic_mac.o
 .text.atcab_mac
                0x0000000000000000       0x9e build/AWS_IOT/production/mcc_generated_files/CryptoAuthenticationLibrary/basic/atca_basic_mac.o
 .debug_info    0x0000000000000000      0xd86 build/AWS_IOT/production/mcc_generated_files/CryptoAuthenticationLibrary/basic/atca_basic_mac.o
 .debug_abbrev  0x0000000000000000      0x17e build/AWS_IOT/production/mcc_generated_files/CryptoAuthenticationLibrary/basic/atca_basic_mac.o
 .debug_loc     0x0000000000000000      0x173 build/AWS_IOT/production/mcc_generated_files/CryptoAuthenticationLibrary/basic/atca_basic_mac.o
 .debug_aranges
                0x0000000000000000       0x20 build/AWS_IOT/production/mcc_generated_files/CryptoAuthenticationLibrary/basic/atca_basic_mac.o
 .debug_ranges  0x0000000000000000       0x10 build/AWS_IOT/production/mcc_generated_files/CryptoAuthenticationLibrary/basic/atca_basic_mac.o
 .debug_line    0x0000000000000000      0x1ab build/AWS_IOT/production/mcc_generated_files/CryptoAuthenticationLibrary/basic/atca_basic_mac.o
 .debug_str     0x0000000000000000       0x15 build/AWS_IOT/production/mcc_generated_files/CryptoAuthenticationLibrary/basic/atca_basic_mac.o
 .comment       0x0000000000000000       0x30 build/AWS_IOT/production/mcc_generated_files/CryptoAuthenticationLibrary/basic/atca_basic_mac.o
 .debug_frame   0x0000000000000000       0x4c build/AWS_IOT/production/mcc_generated_files/CryptoAuthenticationLibrary/basic/atca_basic_mac.o
 .text          0x0000000000000000        0x0 build/AWS_IOT/production/mcc_generated_files/CryptoAuthenticationLibrary/basic/atca_basic_nonce.o
 .data          0x0000000000000000        0x0 build/AWS_IOT/production/mcc_generated_files/CryptoAuthenticationLibrary/basic/atca_basic_nonce.o
 .bss           0x0000000000000000        0x0 build/AWS_IOT/production/mcc_generated_files/CryptoAuthenticationLibrary/basic/atca_basic_nonce.o
 .text.atcab_nonce
                0x0000000000000000       0x12 build/AWS_IOT/production/mcc_generated_files/CryptoAuthenticationLibrary/basic/atca_basic_nonce.o
 .text.atcab_nonce_rand
                0x0000000000000000       0x10 build/AWS_IOT/production/mcc_generated_files/CryptoAuthenticationLibrary/basic/atca_basic_nonce.o
 .text.atcab_challenge
                0x0000000000000000       0x12 build/AWS_IOT/production/mcc_generated_files/CryptoAuthenticationLibrary/basic/atca_basic_nonce.o
 .text.atcab_challenge_seed_update
                0x0000000000000000       0x10 build/AWS_IOT/production/mcc_generated_files/CryptoAuthenticationLibrary/basic/atca_basic_nonce.o
 .text          0x0000000000000000        0x0 build/AWS_IOT/production/mcc_generated_files/CryptoAuthenticationLibrary/basic/atca_basic_privwrite.o
 .data          0x0000000000000000        0x0 build/AWS_IOT/production/mcc_generated_files/CryptoAuthenticationLibrary/basic/atca_basic_privwrite.o
 .bss           0x0000000000000000        0x0 build/AWS_IOT/production/mcc_generated_files/CryptoAuthenticationLibrary/basic/atca_basic_privwrite.o
 .text.atcab_priv_write
                0x0000000000000000      0x280 build/AWS_IOT/production/mcc_generated_files/CryptoAuthenticationLibrary/basic/atca_basic_privwrite.o
 .debug_info    0x0000000000000000     0x12c0 build/AWS_IOT/production/mcc_generated_files/CryptoAuthenticationLibrary/basic/atca_basic_privwrite.o
 .debug_abbrev  0x0000000000000000      0x214 build/AWS_IOT/production/mcc_generated_files/CryptoAuthenticationLibrary/basic/atca_basic_privwrite.o
 .debug_loc     0x0000000000000000      0x18d build/AWS_IOT/production/mcc_generated_files/CryptoAuthenticationLibrary/basic/atca_basic_privwrite.o
 .debug_aranges
                0x0000000000000000       0x20 build/AWS_IOT/production/mcc_generated_files/CryptoAuthenticationLibrary/basic/atca_basic_privwrite.o
 .debug_ranges  0x0000000000000000       0x10 build/AWS_IOT/production/mcc_generated_files/CryptoAuthenticationLibrary/basic/atca_basic_privwrite.o
 .debug_line    0x0000000000000000      0x2f3 build/AWS_IOT/production/mcc_generated_files/CryptoAuthenticationLibrary/basic/atca_basic_privwrite.o
 .debug_str     0x0000000000000000       0xa6 build/AWS_IOT/production/mcc_generated_files/CryptoAuthenticationLibrary/basic/atca_basic_privwrite.o
 .comment       0x0000000000000000       0x30 build/AWS_IOT/production/mcc_generated_files/CryptoAuthenticationLibrary/basic/atca_basic_privwrite.o
 .debug_frame   0x0000000000000000       0x78 build/AWS_IOT/production/mcc_generated_files/CryptoAuthenticationLibrary/basic/atca_basic_privwrite.o
 .text          0x0000000000000000        0x0 build/AWS_IOT/production/mcc_generated_files/CryptoAuthenticationLibrary/basic/atca_basic_random.o
 .data          0x0000000000000000        0x0 build/AWS_IOT/production/mcc_generated_files/CryptoAuthenticationLibrary/basic/atca_basic_random.o
 .bss           0x0000000000000000        0x0 build/AWS_IOT/production/mcc_generated_files/CryptoAuthenticationLibrary/basic/atca_basic_random.o
 .text          0x0000000000000000        0x0 build/AWS_IOT/production/mcc_generated_files/CryptoAuthenticationLibrary/basic/atca_basic_read.o
 .data          0x0000000000000000        0x0 build/AWS_IOT/production/mcc_generated_files/CryptoAuthenticationLibrary/basic/atca_basic_read.o
 .bss           0x0000000000000000        0x0 build/AWS_IOT/production/mcc_generated_files/CryptoAuthenticationLibrary/basic/atca_basic_read.o
 .text.atcab_is_slot_locked
                0x0000000000000000       0x94 build/AWS_IOT/production/mcc_generated_files/CryptoAuthenticationLibrary/basic/atca_basic_read.o
 .text.atcab_is_locked
                0x0000000000000000       0x8e build/AWS_IOT/production/mcc_generated_files/CryptoAuthenticationLibrary/basic/atca_basic_read.o
 .rodata        0x0000000000000000      0x130 build/AWS_IOT/production/mcc_generated_files/CryptoAuthenticationLibrary/basic/atca_basic_read.o
 .text.atcab_read_enc
                0x0000000000000000      0x268 build/AWS_IOT/production/mcc_generated_files/CryptoAuthenticationLibrary/basic/atca_basic_read.o
 .text.atcab_read_sig
                0x0000000000000000       0x62 build/AWS_IOT/production/mcc_generated_files/CryptoAuthenticationLibrary/basic/atca_basic_read.o
 .text.atcab_read_pubkey
                0x0000000000000000       0xd8 build/AWS_IOT/production/mcc_generated_files/CryptoAuthenticationLibrary/basic/atca_basic_read.o
 .text.atcab_read_config_zone
                0x0000000000000000       0x52 build/AWS_IOT/production/mcc_generated_files/CryptoAuthenticationLibrary/basic/atca_basic_read.o
 .text.atcab_cmp_config_zone
                0x0000000000000000      0x140 build/AWS_IOT/production/mcc_generated_files/CryptoAuthenticationLibrary/basic/atca_basic_read.o
 .text          0x0000000000000000        0x0 build/AWS_IOT/production/mcc_generated_files/CryptoAuthenticationLibrary/basic/atca_basic_secureboot.o
 .data          0x0000000000000000        0x0 build/AWS_IOT/production/mcc_generated_files/CryptoAuthenticationLibrary/basic/atca_basic_secureboot.o
 .bss           0x0000000000000000        0x0 build/AWS_IOT/production/mcc_generated_files/CryptoAuthenticationLibrary/basic/atca_basic_secureboot.o
 .text.atcab_secureboot
                0x0000000000000000       0xba build/AWS_IOT/production/mcc_generated_files/CryptoAuthenticationLibrary/basic/atca_basic_secureboot.o
 .text.atcab_secureboot_mac
                0x0000000000000000      0x1e4 build/AWS_IOT/production/mcc_generated_files/CryptoAuthenticationLibrary/basic/atca_basic_secureboot.o
 .debug_info    0x0000000000000000     0x133f build/AWS_IOT/production/mcc_generated_files/CryptoAuthenticationLibrary/basic/atca_basic_secureboot.o
 .debug_abbrev  0x0000000000000000      0x1d2 build/AWS_IOT/production/mcc_generated_files/CryptoAuthenticationLibrary/basic/atca_basic_secureboot.o
 .debug_loc     0x0000000000000000      0x3c2 build/AWS_IOT/production/mcc_generated_files/CryptoAuthenticationLibrary/basic/atca_basic_secureboot.o
 .debug_aranges
                0x0000000000000000       0x28 build/AWS_IOT/production/mcc_generated_files/CryptoAuthenticationLibrary/basic/atca_basic_secureboot.o
 .debug_ranges  0x0000000000000000       0x18 build/AWS_IOT/production/mcc_generated_files/CryptoAuthenticationLibrary/basic/atca_basic_secureboot.o
 .debug_line    0x0000000000000000      0x33f build/AWS_IOT/production/mcc_generated_files/CryptoAuthenticationLibrary/basic/atca_basic_secureboot.o
 .debug_str     0x0000000000000000       0xbf build/AWS_IOT/production/mcc_generated_files/CryptoAuthenticationLibrary/basic/atca_basic_secureboot.o
 .comment       0x0000000000000000       0x30 build/AWS_IOT/production/mcc_generated_files/CryptoAuthenticationLibrary/basic/atca_basic_secureboot.o
 .debug_frame   0x0000000000000000       0xa4 build/AWS_IOT/production/mcc_generated_files/CryptoAuthenticationLibrary/basic/atca_basic_secureboot.o
 .text          0x0000000000000000        0x0 build/AWS_IOT/production/mcc_generated_files/CryptoAuthenticationLibrary/basic/atca_basic_selftest.o
 .data          0x0000000000000000        0x0 build/AWS_IOT/production/mcc_generated_files/CryptoAuthenticationLibrary/basic/atca_basic_selftest.o
 .bss           0x0000000000000000        0x0 build/AWS_IOT/production/mcc_generated_files/CryptoAuthenticationLibrary/basic/atca_basic_selftest.o
 .text.atcab_selftest
                0x0000000000000000       0x88 build/AWS_IOT/production/mcc_generated_files/CryptoAuthenticationLibrary/basic/atca_basic_selftest.o
 .debug_info    0x0000000000000000      0xd79 build/AWS_IOT/production/mcc_generated_files/CryptoAuthenticationLibrary/basic/atca_basic_selftest.o
 .debug_abbrev  0x0000000000000000      0x158 build/AWS_IOT/production/mcc_generated_files/CryptoAuthenticationLibrary/basic/atca_basic_selftest.o
 .debug_loc     0x0000000000000000      0x102 build/AWS_IOT/production/mcc_generated_files/CryptoAuthenticationLibrary/basic/atca_basic_selftest.o
 .debug_aranges
                0x0000000000000000       0x20 build/AWS_IOT/production/mcc_generated_files/CryptoAuthenticationLibrary/basic/atca_basic_selftest.o
 .debug_ranges  0x0000000000000000       0x10 build/AWS_IOT/production/mcc_generated_files/CryptoAuthenticationLibrary/basic/atca_basic_selftest.o
 .debug_line    0x0000000000000000      0x1a4 build/AWS_IOT/production/mcc_generated_files/CryptoAuthenticationLibrary/basic/atca_basic_selftest.o
 .debug_str     0x0000000000000000       0x20 build/AWS_IOT/production/mcc_generated_files/CryptoAuthenticationLibrary/basic/atca_basic_selftest.o
 .comment       0x0000000000000000       0x30 build/AWS_IOT/production/mcc_generated_files/CryptoAuthenticationLibrary/basic/atca_basic_selftest.o
 .debug_frame   0x0000000000000000       0x44 build/AWS_IOT/production/mcc_generated_files/CryptoAuthenticationLibrary/basic/atca_basic_selftest.o
 .text          0x0000000000000000        0x0 build/AWS_IOT/production/mcc_generated_files/CryptoAuthenticationLibrary/basic/atca_basic_sha.o
 .data          0x0000000000000000        0x0 build/AWS_IOT/production/mcc_generated_files/CryptoAuthenticationLibrary/basic/atca_basic_sha.o
 .bss           0x0000000000000000        0x0 build/AWS_IOT/production/mcc_generated_files/CryptoAuthenticationLibrary/basic/atca_basic_sha.o
 .text.atcab_sha_base
                0x0000000000000000      0x124 build/AWS_IOT/production/mcc_generated_files/CryptoAuthenticationLibrary/basic/atca_basic_sha.o
 .text.atcab_sha_start
                0x0000000000000000       0x20 build/AWS_IOT/production/mcc_generated_files/CryptoAuthenticationLibrary/basic/atca_basic_sha.o
 .text.atcab_sha_update
                0x0000000000000000       0x1e build/AWS_IOT/production/mcc_generated_files/CryptoAuthenticationLibrary/basic/atca_basic_sha.o
 .text.atcab_sha_end
                0x0000000000000000       0x32 build/AWS_IOT/production/mcc_generated_files/CryptoAuthenticationLibrary/basic/atca_basic_sha.o
 .text.atcab_sha_read_context
                0x0000000000000000       0x1c build/AWS_IOT/production/mcc_generated_files/CryptoAuthenticationLibrary/basic/atca_basic_sha.o
 .text.atcab_sha_write_context
                0x0000000000000000       0x1a build/AWS_IOT/production/mcc_generated_files/CryptoAuthenticationLibrary/basic/atca_basic_sha.o
 .text.atcab_hw_sha2_256_init
                0x0000000000000000       0x10 build/AWS_IOT/production/mcc_generated_files/CryptoAuthenticationLibrary/basic/atca_basic_sha.o
 .text.atcab_hw_sha2_256_update
                0x0000000000000000      0x1da build/AWS_IOT/production/mcc_generated_files/CryptoAuthenticationLibrary/basic/atca_basic_sha.o
 .text.atcab_hw_sha2_256_finish
                0x0000000000000000      0x1ca build/AWS_IOT/production/mcc_generated_files/CryptoAuthenticationLibrary/basic/atca_basic_sha.o
 .text.atcab_hw_sha2_256
                0x0000000000000000       0x62 build/AWS_IOT/production/mcc_generated_files/CryptoAuthenticationLibrary/basic/atca_basic_sha.o
 .text.atcab_sha
                0x0000000000000000        0xc build/AWS_IOT/production/mcc_generated_files/CryptoAuthenticationLibrary/basic/atca_basic_sha.o
 .text.atcab_sha_hmac_init
                0x0000000000000000       0x26 build/AWS_IOT/production/mcc_generated_files/CryptoAuthenticationLibrary/basic/atca_basic_sha.o
 .text.atcab_sha_hmac_update
                0x0000000000000000      0x1fc build/AWS_IOT/production/mcc_generated_files/CryptoAuthenticationLibrary/basic/atca_basic_sha.o
 .text.atcab_sha_hmac_finish
                0x0000000000000000       0x6e build/AWS_IOT/production/mcc_generated_files/CryptoAuthenticationLibrary/basic/atca_basic_sha.o
 .text.atcab_sha_hmac
                0x0000000000000000       0x6a build/AWS_IOT/production/mcc_generated_files/CryptoAuthenticationLibrary/basic/atca_basic_sha.o
 .debug_info    0x0000000000000000     0x19a9 build/AWS_IOT/production/mcc_generated_files/CryptoAuthenticationLibrary/basic/atca_basic_sha.o
 .debug_abbrev  0x0000000000000000      0x22d build/AWS_IOT/production/mcc_generated_files/CryptoAuthenticationLibrary/basic/atca_basic_sha.o
 .debug_loc     0x0000000000000000      0xcbe build/AWS_IOT/production/mcc_generated_files/CryptoAuthenticationLibrary/basic/atca_basic_sha.o
 .debug_aranges
                0x0000000000000000       0x90 build/AWS_IOT/production/mcc_generated_files/CryptoAuthenticationLibrary/basic/atca_basic_sha.o
 .debug_ranges  0x0000000000000000       0x80 build/AWS_IOT/production/mcc_generated_files/CryptoAuthenticationLibrary/basic/atca_basic_sha.o
 .debug_line    0x0000000000000000      0x5aa build/AWS_IOT/production/mcc_generated_files/CryptoAuthenticationLibrary/basic/atca_basic_sha.o
 .debug_str     0x0000000000000000       0x7d build/AWS_IOT/production/mcc_generated_files/CryptoAuthenticationLibrary/basic/atca_basic_sha.o
 .comment       0x0000000000000000       0x30 build/AWS_IOT/production/mcc_generated_files/CryptoAuthenticationLibrary/basic/atca_basic_sha.o
 .debug_frame   0x0000000000000000      0x330 build/AWS_IOT/production/mcc_generated_files/CryptoAuthenticationLibrary/basic/atca_basic_sha.o
 .text          0x0000000000000000        0x0 build/AWS_IOT/production/mcc_generated_files/CryptoAuthenticationLibrary/basic/atca_basic_sign.o
 .data          0x0000000000000000        0x0 build/AWS_IOT/production/mcc_generated_files/CryptoAuthenticationLibrary/basic/atca_basic_sign.o
 .bss           0x0000000000000000        0x0 build/AWS_IOT/production/mcc_generated_files/CryptoAuthenticationLibrary/basic/atca_basic_sign.o
 .text.atcab_sign_internal
                0x0000000000000000       0x12 build/AWS_IOT/production/mcc_generated_files/CryptoAuthenticationLibrary/basic/atca_basic_sign.o
 .text          0x0000000000000000        0x0 build/AWS_IOT/production/mcc_generated_files/CryptoAuthenticationLibrary/basic/atca_basic_updateextra.o
 .data          0x0000000000000000        0x0 build/AWS_IOT/production/mcc_generated_files/CryptoAuthenticationLibrary/basic/atca_basic_updateextra.o
 .bss           0x0000000000000000        0x0 build/AWS_IOT/production/mcc_generated_files/CryptoAuthenticationLibrary/basic/atca_basic_updateextra.o
 .text.atcab_updateextra
                0x0000000000000000       0x5a build/AWS_IOT/production/mcc_generated_files/CryptoAuthenticationLibrary/basic/atca_basic_updateextra.o
 .debug_info    0x0000000000000000      0xd5c build/AWS_IOT/production/mcc_generated_files/CryptoAuthenticationLibrary/basic/atca_basic_updateextra.o
 .debug_abbrev  0x0000000000000000      0x158 build/AWS_IOT/production/mcc_generated_files/CryptoAuthenticationLibrary/basic/atca_basic_updateextra.o
 .debug_loc     0x0000000000000000       0xa4 build/AWS_IOT/production/mcc_generated_files/CryptoAuthenticationLibrary/basic/atca_basic_updateextra.o
 .debug_aranges
                0x0000000000000000       0x20 build/AWS_IOT/production/mcc_generated_files/CryptoAuthenticationLibrary/basic/atca_basic_updateextra.o
 .debug_ranges  0x0000000000000000       0x10 build/AWS_IOT/production/mcc_generated_files/CryptoAuthenticationLibrary/basic/atca_basic_updateextra.o
 .debug_line    0x0000000000000000      0x18f build/AWS_IOT/production/mcc_generated_files/CryptoAuthenticationLibrary/basic/atca_basic_updateextra.o
 .debug_str     0x0000000000000000       0x23 build/AWS_IOT/production/mcc_generated_files/CryptoAuthenticationLibrary/basic/atca_basic_updateextra.o
 .comment       0x0000000000000000       0x30 build/AWS_IOT/production/mcc_generated_files/CryptoAuthenticationLibrary/basic/atca_basic_updateextra.o
 .debug_frame   0x0000000000000000       0x38 build/AWS_IOT/production/mcc_generated_files/CryptoAuthenticationLibrary/basic/atca_basic_updateextra.o
 .text          0x0000000000000000        0x0 build/AWS_IOT/production/mcc_generated_files/CryptoAuthenticationLibrary/basic/atca_basic_verify.o
 .data          0x0000000000000000        0x0 build/AWS_IOT/production/mcc_generated_files/CryptoAuthenticationLibrary/basic/atca_basic_verify.o
 .bss           0x0000000000000000        0x0 build/AWS_IOT/production/mcc_generated_files/CryptoAuthenticationLibrary/basic/atca_basic_verify.o
 .text.atcab_verify_extern_stored_mac
                0x0000000000000000      0x170 build/AWS_IOT/production/mcc_generated_files/CryptoAuthenticationLibrary/basic/atca_basic_verify.o
 .text.atcab_verify_extern_mac
                0x0000000000000000       0x38 build/AWS_IOT/production/mcc_generated_files/CryptoAuthenticationLibrary/basic/atca_basic_verify.o
 .text.atcab_verify_stored
                0x0000000000000000       0xaa build/AWS_IOT/production/mcc_generated_files/CryptoAuthenticationLibrary/basic/atca_basic_verify.o
 .text.atcab_verify_stored_mac
                0x0000000000000000       0x3a build/AWS_IOT/production/mcc_generated_files/CryptoAuthenticationLibrary/basic/atca_basic_verify.o
 .text.atcab_verify_validate
                0x0000000000000000       0x5c build/AWS_IOT/production/mcc_generated_files/CryptoAuthenticationLibrary/basic/atca_basic_verify.o
 .text.atcab_verify_invalidate
                0x0000000000000000       0x5c build/AWS_IOT/production/mcc_generated_files/CryptoAuthenticationLibrary/basic/atca_basic_verify.o
 .text          0x0000000000000000        0x0 build/AWS_IOT/production/mcc_generated_files/CryptoAuthenticationLibrary/basic/atca_basic_write.o
 .data          0x0000000000000000        0x0 build/AWS_IOT/production/mcc_generated_files/CryptoAuthenticationLibrary/basic/atca_basic_write.o
 .bss           0x0000000000000000        0x0 build/AWS_IOT/production/mcc_generated_files/CryptoAuthenticationLibrary/basic/atca_basic_write.o
 .text.atcab_write
                0x0000000000000000       0xaa build/AWS_IOT/production/mcc_generated_files/CryptoAuthenticationLibrary/basic/atca_basic_write.o
 .text.atcab_write_zone
                0x0000000000000000       0x84 build/AWS_IOT/production/mcc_generated_files/CryptoAuthenticationLibrary/basic/atca_basic_write.o
 .rodata        0x0000000000000000       0xeb build/AWS_IOT/production/mcc_generated_files/CryptoAuthenticationLibrary/basic/atca_basic_write.o
 .text.atcab_write_enc
                0x0000000000000000      0x2d2 build/AWS_IOT/production/mcc_generated_files/CryptoAuthenticationLibrary/basic/atca_basic_write.o
 .text.atcab_write_pubkey
                0x0000000000000000       0xa8 build/AWS_IOT/production/mcc_generated_files/CryptoAuthenticationLibrary/basic/atca_basic_write.o
 .text.atcab_write_bytes_zone
                0x0000000000000000      0x1d2 build/AWS_IOT/production/mcc_generated_files/CryptoAuthenticationLibrary/basic/atca_basic_write.o
 .text.atcab_write_config_zone
                0x0000000000000000       0x86 build/AWS_IOT/production/mcc_generated_files/CryptoAuthenticationLibrary/basic/atca_basic_write.o
 .text.atcab_write_config_counter
                0x0000000000000000      0x110 build/AWS_IOT/production/mcc_generated_files/CryptoAuthenticationLibrary/basic/atca_basic_write.o
 .debug_info    0x0000000000000000     0x19ce build/AWS_IOT/production/mcc_generated_files/CryptoAuthenticationLibrary/basic/atca_basic_write.o
 .debug_abbrev  0x0000000000000000      0x2b4 build/AWS_IOT/production/mcc_generated_files/CryptoAuthenticationLibrary/basic/atca_basic_write.o
 .debug_loc     0x0000000000000000      0xc13 build/AWS_IOT/production/mcc_generated_files/CryptoAuthenticationLibrary/basic/atca_basic_write.o
 .debug_aranges
                0x0000000000000000       0x50 build/AWS_IOT/production/mcc_generated_files/CryptoAuthenticationLibrary/basic/atca_basic_write.o
 .debug_ranges  0x0000000000000000       0x40 build/AWS_IOT/production/mcc_generated_files/CryptoAuthenticationLibrary/basic/atca_basic_write.o
 .debug_line    0x0000000000000000      0x692 build/AWS_IOT/production/mcc_generated_files/CryptoAuthenticationLibrary/basic/atca_basic_write.o
 .debug_str     0x0000000000000000       0xd7 build/AWS_IOT/production/mcc_generated_files/CryptoAuthenticationLibrary/basic/atca_basic_write.o
 .comment       0x0000000000000000       0x30 build/AWS_IOT/production/mcc_generated_files/CryptoAuthenticationLibrary/basic/atca_basic_write.o
 .debug_frame   0x0000000000000000      0x20c build/AWS_IOT/production/mcc_generated_files/CryptoAuthenticationLibrary/basic/atca_basic_write.o
 .text          0x0000000000000000        0x0 build/AWS_IOT/production/mcc_generated_files/CryptoAuthenticationLibrary/basic/atca_helpers.o
 .data          0x0000000000000000        0x0 build/AWS_IOT/production/mcc_generated_files/CryptoAuthenticationLibrary/basic/atca_helpers.o
 .bss           0x0000000000000000        0x0 build/AWS_IOT/production/mcc_generated_files/CryptoAuthenticationLibrary/basic/atca_helpers.o
 .rodata        0x0000000000000000      0x16b build/AWS_IOT/production/mcc_generated_files/CryptoAuthenticationLibrary/basic/atca_helpers.o
 .text.atcab_base64decode_block
                0x0000000000000000      0x110 build/AWS_IOT/production/mcc_generated_files/CryptoAuthenticationLibrary/basic/atca_helpers.o
 .text.atcab_reversal
                0x0000000000000000       0x4a build/AWS_IOT/production/mcc_generated_files/CryptoAuthenticationLibrary/basic/atca_helpers.o
 .text.atcab_bin2hex_
                0x0000000000000000      0x1c8 build/AWS_IOT/production/mcc_generated_files/CryptoAuthenticationLibrary/basic/atca_helpers.o
 .text.atcab_bin2hex
                0x0000000000000000       0x1c build/AWS_IOT/production/mcc_generated_files/CryptoAuthenticationLibrary/basic/atca_helpers.o
 .text.isDigit  0x0000000000000000        0xe build/AWS_IOT/production/mcc_generated_files/CryptoAuthenticationLibrary/basic/atca_helpers.o
 .text.isWhiteSpace
                0x0000000000000000       0x22 build/AWS_IOT/production/mcc_generated_files/CryptoAuthenticationLibrary/basic/atca_helpers.o
 .text.isAlpha  0x0000000000000000       0x10 build/AWS_IOT/production/mcc_generated_files/CryptoAuthenticationLibrary/basic/atca_helpers.o
 .text.isHexAlpha
                0x0000000000000000       0x10 build/AWS_IOT/production/mcc_generated_files/CryptoAuthenticationLibrary/basic/atca_helpers.o
 .text.isHexDigit
                0x0000000000000000       0x16 build/AWS_IOT/production/mcc_generated_files/CryptoAuthenticationLibrary/basic/atca_helpers.o
 .text.atcab_hex2bin_
                0x0000000000000000      0x14a build/AWS_IOT/production/mcc_generated_files/CryptoAuthenticationLibrary/basic/atca_helpers.o
 .text.atcab_hex2bin
                0x0000000000000000        0xc build/AWS_IOT/production/mcc_generated_files/CryptoAuthenticationLibrary/basic/atca_helpers.o
 .text.isHex    0x0000000000000000       0x1e build/AWS_IOT/production/mcc_generated_files/CryptoAuthenticationLibrary/basic/atca_helpers.o
 .text.packHex  0x0000000000000000       0x9a build/AWS_IOT/production/mcc_generated_files/CryptoAuthenticationLibrary/basic/atca_helpers.o
 .text.atcab_printbin
                0x0000000000000000       0xdc build/AWS_IOT/production/mcc_generated_files/CryptoAuthenticationLibrary/basic/atca_helpers.o
 .text.atcab_printbin_label
                0x0000000000000000       0x38 build/AWS_IOT/production/mcc_generated_files/CryptoAuthenticationLibrary/basic/atca_helpers.o
 .text.atcab_printbin_sp
                0x0000000000000000        0x8 build/AWS_IOT/production/mcc_generated_files/CryptoAuthenticationLibrary/basic/atca_helpers.o
 .text.isBase64Digit
                0x0000000000000000       0x4c build/AWS_IOT/production/mcc_generated_files/CryptoAuthenticationLibrary/basic/atca_helpers.o
 .text.isBase64
                0x0000000000000000       0x1e build/AWS_IOT/production/mcc_generated_files/CryptoAuthenticationLibrary/basic/atca_helpers.o
 .text.base64Index
                0x0000000000000000       0x48 build/AWS_IOT/production/mcc_generated_files/CryptoAuthenticationLibrary/basic/atca_helpers.o
 .text.base64Char
                0x0000000000000000       0x42 build/AWS_IOT/production/mcc_generated_files/CryptoAuthenticationLibrary/basic/atca_helpers.o
 .text.atcab_base64decode_
                0x0000000000000000      0x1d4 build/AWS_IOT/production/mcc_generated_files/CryptoAuthenticationLibrary/basic/atca_helpers.o
 .text.atcab_base64encode_
                0x0000000000000000      0x328 build/AWS_IOT/production/mcc_generated_files/CryptoAuthenticationLibrary/basic/atca_helpers.o
 .text.atcab_base64encode
                0x0000000000000000       0x12 build/AWS_IOT/production/mcc_generated_files/CryptoAuthenticationLibrary/basic/atca_helpers.o
 .text.atcab_base64decode
                0x0000000000000000       0x12 build/AWS_IOT/production/mcc_generated_files/CryptoAuthenticationLibrary/basic/atca_helpers.o
 .data.atcab_b64rules_urlsafe
                0x0000000000000000        0x4 build/AWS_IOT/production/mcc_generated_files/CryptoAuthenticationLibrary/basic/atca_helpers.o
 .data.atcab_b64rules_mime
                0x0000000000000000        0x4 build/AWS_IOT/production/mcc_generated_files/CryptoAuthenticationLibrary/basic/atca_helpers.o
 .data.atcab_b64rules_default
                0x0000000000000000        0x4 build/AWS_IOT/production/mcc_generated_files/CryptoAuthenticationLibrary/basic/atca_helpers.o
 .debug_info    0x0000000000000000     0x173a build/AWS_IOT/production/mcc_generated_files/CryptoAuthenticationLibrary/basic/atca_helpers.o
 .debug_abbrev  0x0000000000000000      0x296 build/AWS_IOT/production/mcc_generated_files/CryptoAuthenticationLibrary/basic/atca_helpers.o
 .debug_loc     0x0000000000000000     0x1dbd build/AWS_IOT/production/mcc_generated_files/CryptoAuthenticationLibrary/basic/atca_helpers.o
 .debug_aranges
                0x0000000000000000       0xd8 build/AWS_IOT/production/mcc_generated_files/CryptoAuthenticationLibrary/basic/atca_helpers.o
 .debug_ranges  0x0000000000000000       0xc8 build/AWS_IOT/production/mcc_generated_files/CryptoAuthenticationLibrary/basic/atca_helpers.o
 .debug_line    0x0000000000000000      0xae8 build/AWS_IOT/production/mcc_generated_files/CryptoAuthenticationLibrary/basic/atca_helpers.o
 .debug_str     0x0000000000000000       0x85 build/AWS_IOT/production/mcc_generated_files/CryptoAuthenticationLibrary/basic/atca_helpers.o
 .comment       0x0000000000000000       0x30 build/AWS_IOT/production/mcc_generated_files/CryptoAuthenticationLibrary/basic/atca_helpers.o
 .debug_frame   0x0000000000000000      0x440 build/AWS_IOT/production/mcc_generated_files/CryptoAuthenticationLibrary/basic/atca_helpers.o
 .text          0x0000000000000000        0x0 build/AWS_IOT/production/mcc_generated_files/CryptoAuthenticationLibrary/crypto/hashes/sha1_routines.o
 .data          0x0000000000000000        0x0 build/AWS_IOT/production/mcc_generated_files/CryptoAuthenticationLibrary/crypto/hashes/sha1_routines.o
 .bss           0x0000000000000000        0x0 build/AWS_IOT/production/mcc_generated_files/CryptoAuthenticationLibrary/crypto/hashes/sha1_routines.o
 .text.CL_hashInit
                0x0000000000000000       0x1c build/AWS_IOT/production/mcc_generated_files/CryptoAuthenticationLibrary/crypto/hashes/sha1_routines.o
 .text.shaEngine
                0x0000000000000000      0x42e build/AWS_IOT/production/mcc_generated_files/CryptoAuthenticationLibrary/crypto/hashes/sha1_routines.o
 .text.CL_hashUpdate
                0x0000000000000000      0x118 build/AWS_IOT/production/mcc_generated_files/CryptoAuthenticationLibrary/crypto/hashes/sha1_routines.o
 .text.CL_hashFinal
                0x0000000000000000      0x162 build/AWS_IOT/production/mcc_generated_files/CryptoAuthenticationLibrary/crypto/hashes/sha1_routines.o
 .text.CL_hash  0x0000000000000000       0x5a build/AWS_IOT/production/mcc_generated_files/CryptoAuthenticationLibrary/crypto/hashes/sha1_routines.o
 .rodata.hashContext_h_init.2122
                0x0000000000000000       0x14 build/AWS_IOT/production/mcc_generated_files/CryptoAuthenticationLibrary/crypto/hashes/sha1_routines.o
 .debug_info    0x0000000000000000      0x6e9 build/AWS_IOT/production/mcc_generated_files/CryptoAuthenticationLibrary/crypto/hashes/sha1_routines.o
 .debug_abbrev  0x0000000000000000       0xe5 build/AWS_IOT/production/mcc_generated_files/CryptoAuthenticationLibrary/crypto/hashes/sha1_routines.o
 .debug_loc     0x0000000000000000      0x86d build/AWS_IOT/production/mcc_generated_files/CryptoAuthenticationLibrary/crypto/hashes/sha1_routines.o
 .debug_aranges
                0x0000000000000000       0x40 build/AWS_IOT/production/mcc_generated_files/CryptoAuthenticationLibrary/crypto/hashes/sha1_routines.o
 .debug_ranges  0x0000000000000000       0x30 build/AWS_IOT/production/mcc_generated_files/CryptoAuthenticationLibrary/crypto/hashes/sha1_routines.o
 .debug_line    0x0000000000000000      0x35d build/AWS_IOT/production/mcc_generated_files/CryptoAuthenticationLibrary/crypto/hashes/sha1_routines.o
 .debug_str     0x0000000000000000        0x0 build/AWS_IOT/production/mcc_generated_files/CryptoAuthenticationLibrary/crypto/hashes/sha1_routines.o
 .comment       0x0000000000000000       0x30 build/AWS_IOT/production/mcc_generated_files/CryptoAuthenticationLibrary/crypto/hashes/sha1_routines.o
 .debug_frame   0x0000000000000000      0x174 build/AWS_IOT/production/mcc_generated_files/CryptoAuthenticationLibrary/crypto/hashes/sha1_routines.o
 .text          0x0000000000000000        0x0 build/AWS_IOT/production/mcc_generated_files/CryptoAuthenticationLibrary/crypto/hashes/sha2_routines.o
 .data          0x0000000000000000        0x0 build/AWS_IOT/production/mcc_generated_files/CryptoAuthenticationLibrary/crypto/hashes/sha2_routines.o
 .bss           0x0000000000000000        0x0 build/AWS_IOT/production/mcc_generated_files/CryptoAuthenticationLibrary/crypto/hashes/sha2_routines.o
 .text.sw_sha256_process
                0x0000000000000000      0x900 build/AWS_IOT/production/mcc_generated_files/CryptoAuthenticationLibrary/crypto/hashes/sha2_routines.o
 .text.sw_sha256_init
                0x0000000000000000       0x30 build/AWS_IOT/production/mcc_generated_files/CryptoAuthenticationLibrary/crypto/hashes/sha2_routines.o
 .text.sw_sha256_update
                0x0000000000000000      0x17a build/AWS_IOT/production/mcc_generated_files/CryptoAuthenticationLibrary/crypto/hashes/sha2_routines.o
 .text.sw_sha256_final
                0x0000000000000000      0x192 build/AWS_IOT/production/mcc_generated_files/CryptoAuthenticationLibrary/crypto/hashes/sha2_routines.o
 .text.sw_sha256
                0x0000000000000000       0x5e build/AWS_IOT/production/mcc_generated_files/CryptoAuthenticationLibrary/crypto/hashes/sha2_routines.o
 .rodata.k.1757
                0x0000000000000000      0x100 build/AWS_IOT/production/mcc_generated_files/CryptoAuthenticationLibrary/crypto/hashes/sha2_routines.o
 .rodata.hash_init.1789
                0x0000000000000000       0x20 build/AWS_IOT/production/mcc_generated_files/CryptoAuthenticationLibrary/crypto/hashes/sha2_routines.o
 .debug_info    0x0000000000000000      0x85b build/AWS_IOT/production/mcc_generated_files/CryptoAuthenticationLibrary/crypto/hashes/sha2_routines.o
 .debug_abbrev  0x0000000000000000      0x14b build/AWS_IOT/production/mcc_generated_files/CryptoAuthenticationLibrary/crypto/hashes/sha2_routines.o
 .debug_loc     0x0000000000000000      0x8a1 build/AWS_IOT/production/mcc_generated_files/CryptoAuthenticationLibrary/crypto/hashes/sha2_routines.o
 .debug_aranges
                0x0000000000000000       0x40 build/AWS_IOT/production/mcc_generated_files/CryptoAuthenticationLibrary/crypto/hashes/sha2_routines.o
 .debug_ranges  0x0000000000000000       0x30 build/AWS_IOT/production/mcc_generated_files/CryptoAuthenticationLibrary/crypto/hashes/sha2_routines.o
 .debug_line    0x0000000000000000      0x304 build/AWS_IOT/production/mcc_generated_files/CryptoAuthenticationLibrary/crypto/hashes/sha2_routines.o
 .debug_str     0x0000000000000000        0xc build/AWS_IOT/production/mcc_generated_files/CryptoAuthenticationLibrary/crypto/hashes/sha2_routines.o
 .comment       0x0000000000000000       0x30 build/AWS_IOT/production/mcc_generated_files/CryptoAuthenticationLibrary/crypto/hashes/sha2_routines.o
 .debug_frame   0x0000000000000000      0x190 build/AWS_IOT/production/mcc_generated_files/CryptoAuthenticationLibrary/crypto/hashes/sha2_routines.o
 .text          0x0000000000000000        0x0 build/AWS_IOT/production/mcc_generated_files/CryptoAuthenticationLibrary/crypto/atca_crypto_sw_ecdsa.o
 .data          0x0000000000000000        0x0 build/AWS_IOT/production/mcc_generated_files/CryptoAuthenticationLibrary/crypto/atca_crypto_sw_ecdsa.o
 .bss           0x0000000000000000        0x0 build/AWS_IOT/production/mcc_generated_files/CryptoAuthenticationLibrary/crypto/atca_crypto_sw_ecdsa.o
 .text.atcac_sw_ecdsa_verify_p256
                0x0000000000000000        0x6 build/AWS_IOT/production/mcc_generated_files/CryptoAuthenticationLibrary/crypto/atca_crypto_sw_ecdsa.o
 .debug_info    0x0000000000000000      0x604 build/AWS_IOT/production/mcc_generated_files/CryptoAuthenticationLibrary/crypto/atca_crypto_sw_ecdsa.o
 .debug_abbrev  0x0000000000000000       0x90 build/AWS_IOT/production/mcc_generated_files/CryptoAuthenticationLibrary/crypto/atca_crypto_sw_ecdsa.o
 .debug_loc     0x0000000000000000       0x26 build/AWS_IOT/production/mcc_generated_files/CryptoAuthenticationLibrary/crypto/atca_crypto_sw_ecdsa.o
 .debug_aranges
                0x0000000000000000       0x20 build/AWS_IOT/production/mcc_generated_files/CryptoAuthenticationLibrary/crypto/atca_crypto_sw_ecdsa.o
 .debug_ranges  0x0000000000000000       0x10 build/AWS_IOT/production/mcc_generated_files/CryptoAuthenticationLibrary/crypto/atca_crypto_sw_ecdsa.o
 .debug_line    0x0000000000000000      0x100 build/AWS_IOT/production/mcc_generated_files/CryptoAuthenticationLibrary/crypto/atca_crypto_sw_ecdsa.o
 .debug_str     0x0000000000000000        0x0 build/AWS_IOT/production/mcc_generated_files/CryptoAuthenticationLibrary/crypto/atca_crypto_sw_ecdsa.o
 .comment       0x0000000000000000       0x30 build/AWS_IOT/production/mcc_generated_files/CryptoAuthenticationLibrary/crypto/atca_crypto_sw_ecdsa.o
 .debug_frame   0x0000000000000000       0x24 build/AWS_IOT/production/mcc_generated_files/CryptoAuthenticationLibrary/crypto/atca_crypto_sw_ecdsa.o
 .text          0x0000000000000000        0x0 build/AWS_IOT/production/mcc_generated_files/CryptoAuthenticationLibrary/crypto/atca_crypto_sw_rand.o
 .data          0x0000000000000000        0x0 build/AWS_IOT/production/mcc_generated_files/CryptoAuthenticationLibrary/crypto/atca_crypto_sw_rand.o
 .bss           0x0000000000000000        0x0 build/AWS_IOT/production/mcc_generated_files/CryptoAuthenticationLibrary/crypto/atca_crypto_sw_rand.o
 .text.atcac_sw_random
                0x0000000000000000        0x6 build/AWS_IOT/production/mcc_generated_files/CryptoAuthenticationLibrary/crypto/atca_crypto_sw_rand.o
 .debug_info    0x0000000000000000      0x5e9 build/AWS_IOT/production/mcc_generated_files/CryptoAuthenticationLibrary/crypto/atca_crypto_sw_rand.o
 .debug_abbrev  0x0000000000000000       0x89 build/AWS_IOT/production/mcc_generated_files/CryptoAuthenticationLibrary/crypto/atca_crypto_sw_rand.o
 .debug_loc     0x0000000000000000       0x26 build/AWS_IOT/production/mcc_generated_files/CryptoAuthenticationLibrary/crypto/atca_crypto_sw_rand.o
 .debug_aranges
                0x0000000000000000       0x20 build/AWS_IOT/production/mcc_generated_files/CryptoAuthenticationLibrary/crypto/atca_crypto_sw_rand.o
 .debug_ranges  0x0000000000000000       0x10 build/AWS_IOT/production/mcc_generated_files/CryptoAuthenticationLibrary/crypto/atca_crypto_sw_rand.o
 .debug_line    0x0000000000000000      0x14b build/AWS_IOT/production/mcc_generated_files/CryptoAuthenticationLibrary/crypto/atca_crypto_sw_rand.o
 .debug_str     0x0000000000000000        0x0 build/AWS_IOT/production/mcc_generated_files/CryptoAuthenticationLibrary/crypto/atca_crypto_sw_rand.o
 .comment       0x0000000000000000       0x30 build/AWS_IOT/production/mcc_generated_files/CryptoAuthenticationLibrary/crypto/atca_crypto_sw_rand.o
 .debug_frame   0x0000000000000000       0x24 build/AWS_IOT/production/mcc_generated_files/CryptoAuthenticationLibrary/crypto/atca_crypto_sw_rand.o
 .text          0x0000000000000000        0x0 build/AWS_IOT/production/mcc_generated_files/CryptoAuthenticationLibrary/crypto/atca_crypto_sw_sha1.o
 .data          0x0000000000000000        0x0 build/AWS_IOT/production/mcc_generated_files/CryptoAuthenticationLibrary/crypto/atca_crypto_sw_sha1.o
 .bss           0x0000000000000000        0x0 build/AWS_IOT/production/mcc_generated_files/CryptoAuthenticationLibrary/crypto/atca_crypto_sw_sha1.o
 .text.atcac_sw_sha1_init
                0x0000000000000000        0xa build/AWS_IOT/production/mcc_generated_files/CryptoAuthenticationLibrary/crypto/atca_crypto_sw_sha1.o
 .text.atcac_sw_sha1_update
                0x0000000000000000        0xa build/AWS_IOT/production/mcc_generated_files/CryptoAuthenticationLibrary/crypto/atca_crypto_sw_sha1.o
 .text.atcac_sw_sha1_finish
                0x0000000000000000        0xa build/AWS_IOT/production/mcc_generated_files/CryptoAuthenticationLibrary/crypto/atca_crypto_sw_sha1.o
 .text.atcac_sw_sha1
                0x0000000000000000       0x5e build/AWS_IOT/production/mcc_generated_files/CryptoAuthenticationLibrary/crypto/atca_crypto_sw_sha1.o
 .debug_info    0x0000000000000000      0x96f build/AWS_IOT/production/mcc_generated_files/CryptoAuthenticationLibrary/crypto/atca_crypto_sw_sha1.o
 .debug_abbrev  0x0000000000000000      0x174 build/AWS_IOT/production/mcc_generated_files/CryptoAuthenticationLibrary/crypto/atca_crypto_sw_sha1.o
 .debug_loc     0x0000000000000000      0x1e4 build/AWS_IOT/production/mcc_generated_files/CryptoAuthenticationLibrary/crypto/atca_crypto_sw_sha1.o
 .debug_aranges
                0x0000000000000000       0x38 build/AWS_IOT/production/mcc_generated_files/CryptoAuthenticationLibrary/crypto/atca_crypto_sw_sha1.o
 .debug_ranges  0x0000000000000000       0x28 build/AWS_IOT/production/mcc_generated_files/CryptoAuthenticationLibrary/crypto/atca_crypto_sw_sha1.o
 .debug_line    0x0000000000000000      0x21d build/AWS_IOT/production/mcc_generated_files/CryptoAuthenticationLibrary/crypto/atca_crypto_sw_sha1.o
 .debug_str     0x0000000000000000       0x31 build/AWS_IOT/production/mcc_generated_files/CryptoAuthenticationLibrary/crypto/atca_crypto_sw_sha1.o
 .comment       0x0000000000000000       0x30 build/AWS_IOT/production/mcc_generated_files/CryptoAuthenticationLibrary/crypto/atca_crypto_sw_sha1.o
 .debug_frame   0x0000000000000000       0x84 build/AWS_IOT/production/mcc_generated_files/CryptoAuthenticationLibrary/crypto/atca_crypto_sw_sha1.o
 .text          0x0000000000000000        0x0 build/AWS_IOT/production/mcc_generated_files/CryptoAuthenticationLibrary/crypto/atca_crypto_sw_sha2.o
 .data          0x0000000000000000        0x0 build/AWS_IOT/production/mcc_generated_files/CryptoAuthenticationLibrary/crypto/atca_crypto_sw_sha2.o
 .bss           0x0000000000000000        0x0 build/AWS_IOT/production/mcc_generated_files/CryptoAuthenticationLibrary/crypto/atca_crypto_sw_sha2.o
 .text.atcac_sw_sha2_256_init
                0x0000000000000000        0xa build/AWS_IOT/production/mcc_generated_files/CryptoAuthenticationLibrary/crypto/atca_crypto_sw_sha2.o
 .text.atcac_sw_sha2_256_update
                0x0000000000000000       0x10 build/AWS_IOT/production/mcc_generated_files/CryptoAuthenticationLibrary/crypto/atca_crypto_sw_sha2.o
 .text.atcac_sw_sha2_256_finish
                0x0000000000000000        0xa build/AWS_IOT/production/mcc_generated_files/CryptoAuthenticationLibrary/crypto/atca_crypto_sw_sha2.o
 .text.atcac_sw_sha2_256
                0x0000000000000000       0x62 build/AWS_IOT/production/mcc_generated_files/CryptoAuthenticationLibrary/crypto/atca_crypto_sw_sha2.o
 .debug_info    0x0000000000000000      0x96c build/AWS_IOT/production/mcc_generated_files/CryptoAuthenticationLibrary/crypto/atca_crypto_sw_sha2.o
 .debug_abbrev  0x0000000000000000      0x174 build/AWS_IOT/production/mcc_generated_files/CryptoAuthenticationLibrary/crypto/atca_crypto_sw_sha2.o
 .debug_loc     0x0000000000000000      0x1f4 build/AWS_IOT/production/mcc_generated_files/CryptoAuthenticationLibrary/crypto/atca_crypto_sw_sha2.o
 .debug_aranges
                0x0000000000000000       0x38 build/AWS_IOT/production/mcc_generated_files/CryptoAuthenticationLibrary/crypto/atca_crypto_sw_sha2.o
 .debug_ranges  0x0000000000000000       0x28 build/AWS_IOT/production/mcc_generated_files/CryptoAuthenticationLibrary/crypto/atca_crypto_sw_sha2.o
 .debug_line    0x0000000000000000      0x21d build/AWS_IOT/production/mcc_generated_files/CryptoAuthenticationLibrary/crypto/atca_crypto_sw_sha2.o
 .debug_str     0x0000000000000000       0x3a build/AWS_IOT/production/mcc_generated_files/CryptoAuthenticationLibrary/crypto/atca_crypto_sw_sha2.o
 .comment       0x0000000000000000       0x30 build/AWS_IOT/production/mcc_generated_files/CryptoAuthenticationLibrary/crypto/atca_crypto_sw_sha2.o
 .debug_frame   0x0000000000000000       0x84 build/AWS_IOT/production/mcc_generated_files/CryptoAuthenticationLibrary/crypto/atca_crypto_sw_sha2.o
 .text          0x0000000000000000        0x0 build/AWS_IOT/production/mcc_generated_files/CryptoAuthenticationLibrary/hal/atca_hal.o
 .data          0x0000000000000000        0x0 build/AWS_IOT/production/mcc_generated_files/CryptoAuthenticationLibrary/hal/atca_hal.o
 .bss           0x0000000000000000        0x0 build/AWS_IOT/production/mcc_generated_files/CryptoAuthenticationLibrary/hal/atca_hal.o
 .text          0x0000000000000000        0x0 build/AWS_IOT/production/mcc_generated_files/CryptoAuthenticationLibrary/hal/atca_i2c_hal.o
 .data          0x0000000000000000        0x0 build/AWS_IOT/production/mcc_generated_files/CryptoAuthenticationLibrary/hal/atca_i2c_hal.o
 .bss           0x0000000000000000        0x0 build/AWS_IOT/production/mcc_generated_files/CryptoAuthenticationLibrary/hal/atca_i2c_hal.o
 .text.hal_i2c_discover_buses
                0x0000000000000000        0x4 build/AWS_IOT/production/mcc_generated_files/CryptoAuthenticationLibrary/hal/atca_i2c_hal.o
 .text.hal_i2c_discover_devices
                0x0000000000000000        0x4 build/AWS_IOT/production/mcc_generated_files/CryptoAuthenticationLibrary/hal/atca_i2c_hal.o
 .text          0x0000000000000000        0x0 build/AWS_IOT/production/mcc_generated_files/CryptoAuthenticationLibrary/hal/hal_i2c_timer.o
 .data          0x0000000000000000        0x0 build/AWS_IOT/production/mcc_generated_files/CryptoAuthenticationLibrary/hal/hal_i2c_timer.o
 .bss           0x0000000000000000        0x0 build/AWS_IOT/production/mcc_generated_files/CryptoAuthenticationLibrary/hal/hal_i2c_timer.o
 .text          0x0000000000000000        0x0 build/AWS_IOT/production/mcc_generated_files/CryptoAuthenticationLibrary/host/atca_host.o
 .data          0x0000000000000000        0x0 build/AWS_IOT/production/mcc_generated_files/CryptoAuthenticationLibrary/host/atca_host.o
 .bss           0x0000000000000000        0x0 build/AWS_IOT/production/mcc_generated_files/CryptoAuthenticationLibrary/host/atca_host.o
 .text.atcah_include_data
                0x0000000000000000      0x118 build/AWS_IOT/production/mcc_generated_files/CryptoAuthenticationLibrary/host/atca_host.o
 .text.atcah_nonce
                0x0000000000000000      0x128 build/AWS_IOT/production/mcc_generated_files/CryptoAuthenticationLibrary/host/atca_host.o
 .text.atcah_io_decrypt
                0x0000000000000000      0x158 build/AWS_IOT/production/mcc_generated_files/CryptoAuthenticationLibrary/host/atca_host.o
 .text.atcah_verify_mac
                0x0000000000000000      0x280 build/AWS_IOT/production/mcc_generated_files/CryptoAuthenticationLibrary/host/atca_host.o
 .text.atcah_secureboot_enc
                0x0000000000000000       0xf2 build/AWS_IOT/production/mcc_generated_files/CryptoAuthenticationLibrary/host/atca_host.o
 .text.atcah_secureboot_mac
                0x0000000000000000      0x106 build/AWS_IOT/production/mcc_generated_files/CryptoAuthenticationLibrary/host/atca_host.o
 .text.atcah_mac
                0x0000000000000000      0x1d2 build/AWS_IOT/production/mcc_generated_files/CryptoAuthenticationLibrary/host/atca_host.o
 .text.atcah_check_mac
                0x0000000000000000      0x2ea build/AWS_IOT/production/mcc_generated_files/CryptoAuthenticationLibrary/host/atca_host.o
 .text.atcah_hmac
                0x0000000000000000      0x20c build/AWS_IOT/production/mcc_generated_files/CryptoAuthenticationLibrary/host/atca_host.o
 .text.atcah_gen_dig
                0x0000000000000000      0x226 build/AWS_IOT/production/mcc_generated_files/CryptoAuthenticationLibrary/host/atca_host.o
 .text.atcah_gen_mac
                0x0000000000000000      0x156 build/AWS_IOT/production/mcc_generated_files/CryptoAuthenticationLibrary/host/atca_host.o
 .text.atcah_write_auth_mac
                0x0000000000000000      0x114 build/AWS_IOT/production/mcc_generated_files/CryptoAuthenticationLibrary/host/atca_host.o
 .text.atcah_privwrite_auth_mac
                0x0000000000000000      0x170 build/AWS_IOT/production/mcc_generated_files/CryptoAuthenticationLibrary/host/atca_host.o
 .text.atcah_derive_key
                0x0000000000000000      0x13e build/AWS_IOT/production/mcc_generated_files/CryptoAuthenticationLibrary/host/atca_host.o
 .text.atcah_derive_key_mac
                0x0000000000000000       0x9a build/AWS_IOT/production/mcc_generated_files/CryptoAuthenticationLibrary/host/atca_host.o
 .text.atcah_decrypt
                0x0000000000000000       0x86 build/AWS_IOT/production/mcc_generated_files/CryptoAuthenticationLibrary/host/atca_host.o
 .text.atcah_sha256
                0x0000000000000000        0xc build/AWS_IOT/production/mcc_generated_files/CryptoAuthenticationLibrary/host/atca_host.o
 .text.atcah_gen_key_msg
                0x0000000000000000      0x172 build/AWS_IOT/production/mcc_generated_files/CryptoAuthenticationLibrary/host/atca_host.o
 .text.atcah_config_to_sign_internal
                0x0000000000000000      0x102 build/AWS_IOT/production/mcc_generated_files/CryptoAuthenticationLibrary/host/atca_host.o
 .text.atcah_sign_internal_msg
                0x0000000000000000      0x19c build/AWS_IOT/production/mcc_generated_files/CryptoAuthenticationLibrary/host/atca_host.o
 .text.atcah_encode_counter_match
                0x0000000000000000       0x58 build/AWS_IOT/production/mcc_generated_files/CryptoAuthenticationLibrary/host/atca_host.o
 .debug_info    0x0000000000000000     0x2056 build/AWS_IOT/production/mcc_generated_files/CryptoAuthenticationLibrary/host/atca_host.o
 .debug_abbrev  0x0000000000000000      0x246 build/AWS_IOT/production/mcc_generated_files/CryptoAuthenticationLibrary/host/atca_host.o
 .debug_loc     0x0000000000000000     0x178b build/AWS_IOT/production/mcc_generated_files/CryptoAuthenticationLibrary/host/atca_host.o
 .debug_aranges
                0x0000000000000000       0xc0 build/AWS_IOT/production/mcc_generated_files/CryptoAuthenticationLibrary/host/atca_host.o
 .debug_ranges  0x0000000000000000       0xb0 build/AWS_IOT/production/mcc_generated_files/CryptoAuthenticationLibrary/host/atca_host.o
 .debug_line    0x0000000000000000     0x11ea build/AWS_IOT/production/mcc_generated_files/CryptoAuthenticationLibrary/host/atca_host.o
 .debug_str     0x0000000000000000      0x11a build/AWS_IOT/production/mcc_generated_files/CryptoAuthenticationLibrary/host/atca_host.o
 .comment       0x0000000000000000       0x30 build/AWS_IOT/production/mcc_generated_files/CryptoAuthenticationLibrary/host/atca_host.o
 .debug_frame   0x0000000000000000      0x3d4 build/AWS_IOT/production/mcc_generated_files/CryptoAuthenticationLibrary/host/atca_host.o
 .text          0x0000000000000000        0x0 build/AWS_IOT/production/mcc_generated_files/CryptoAuthenticationLibrary/jwt/atca_jwt.o
 .data          0x0000000000000000        0x0 build/AWS_IOT/production/mcc_generated_files/CryptoAuthenticationLibrary/jwt/atca_jwt.o
 .bss           0x0000000000000000        0x0 build/AWS_IOT/production/mcc_generated_files/CryptoAuthenticationLibrary/jwt/atca_jwt.o
 .text.atca_jwt_check_payload_start
                0x0000000000000000       0x64 build/AWS_IOT/production/mcc_generated_files/CryptoAuthenticationLibrary/jwt/atca_jwt.o
 .text.atca_jwt_init
                0x0000000000000000       0xae build/AWS_IOT/production/mcc_generated_files/CryptoAuthenticationLibrary/jwt/atca_jwt.o
 .text.atca_jwt_finalize
                0x0000000000000000      0x25e build/AWS_IOT/production/mcc_generated_files/CryptoAuthenticationLibrary/jwt/atca_jwt.o
 .rodata        0x0000000000000000       0x13 build/AWS_IOT/production/mcc_generated_files/CryptoAuthenticationLibrary/jwt/atca_jwt.o
 .text.atca_jwt_add_claim_string
                0x0000000000000000       0xe0 build/AWS_IOT/production/mcc_generated_files/CryptoAuthenticationLibrary/jwt/atca_jwt.o
 .text.atca_jwt_add_claim_numeric
                0x0000000000000000       0xee build/AWS_IOT/production/mcc_generated_files/CryptoAuthenticationLibrary/jwt/atca_jwt.o
 .text.atca_jwt_verify
                0x0000000000000000      0x104 build/AWS_IOT/production/mcc_generated_files/CryptoAuthenticationLibrary/jwt/atca_jwt.o
 .rodata.g_jwt_header
                0x0000000000000000       0x1c build/AWS_IOT/production/mcc_generated_files/CryptoAuthenticationLibrary/jwt/atca_jwt.o
 .debug_info    0x0000000000000000      0xc31 build/AWS_IOT/production/mcc_generated_files/CryptoAuthenticationLibrary/jwt/atca_jwt.o
 .debug_abbrev  0x0000000000000000      0x221 build/AWS_IOT/production/mcc_generated_files/CryptoAuthenticationLibrary/jwt/atca_jwt.o
 .debug_loc     0x0000000000000000      0x644 build/AWS_IOT/production/mcc_generated_files/CryptoAuthenticationLibrary/jwt/atca_jwt.o
 .debug_aranges
                0x0000000000000000       0x48 build/AWS_IOT/production/mcc_generated_files/CryptoAuthenticationLibrary/jwt/atca_jwt.o
 .debug_ranges  0x0000000000000000       0x38 build/AWS_IOT/production/mcc_generated_files/CryptoAuthenticationLibrary/jwt/atca_jwt.o
 .debug_line    0x0000000000000000      0x557 build/AWS_IOT/production/mcc_generated_files/CryptoAuthenticationLibrary/jwt/atca_jwt.o
 .debug_str     0x0000000000000000       0x6a build/AWS_IOT/production/mcc_generated_files/CryptoAuthenticationLibrary/jwt/atca_jwt.o
 .comment       0x0000000000000000       0x30 build/AWS_IOT/production/mcc_generated_files/CryptoAuthenticationLibrary/jwt/atca_jwt.o
 .debug_frame   0x0000000000000000      0x1bc build/AWS_IOT/production/mcc_generated_files/CryptoAuthenticationLibrary/jwt/atca_jwt.o
 .text          0x0000000000000000        0x0 build/AWS_IOT/production/mcc_generated_files/CryptoAuthenticationLibrary/atca_cfgs.o
 .data          0x0000000000000000        0x0 build/AWS_IOT/production/mcc_generated_files/CryptoAuthenticationLibrary/atca_cfgs.o
 .bss           0x0000000000000000        0x0 build/AWS_IOT/production/mcc_generated_files/CryptoAuthenticationLibrary/atca_cfgs.o
 .data.cfg_atsha204a_kithid_default
                0x0000000000000000       0x26 build/AWS_IOT/production/mcc_generated_files/CryptoAuthenticationLibrary/atca_cfgs.o
 .data.cfg_atsha204a_kitcdc_default
                0x0000000000000000       0x26 build/AWS_IOT/production/mcc_generated_files/CryptoAuthenticationLibrary/atca_cfgs.o
 .data.cfg_atsha204a_swi_default
                0x0000000000000000       0x26 build/AWS_IOT/production/mcc_generated_files/CryptoAuthenticationLibrary/atca_cfgs.o
 .data.cfg_atsha204a_i2c_default
                0x0000000000000000       0x26 build/AWS_IOT/production/mcc_generated_files/CryptoAuthenticationLibrary/atca_cfgs.o
 .data.cfg_ateccx08a_kithid_default
                0x0000000000000000       0x26 build/AWS_IOT/production/mcc_generated_files/CryptoAuthenticationLibrary/atca_cfgs.o
 .data.cfg_ateccx08a_kitcdc_default
                0x0000000000000000       0x26 build/AWS_IOT/production/mcc_generated_files/CryptoAuthenticationLibrary/atca_cfgs.o
 .data.cfg_ateccx08a_swi_default
                0x0000000000000000       0x26 build/AWS_IOT/production/mcc_generated_files/CryptoAuthenticationLibrary/atca_cfgs.o
 .data.cfg_ateccx08a_i2c_default
                0x0000000000000000       0x26 build/AWS_IOT/production/mcc_generated_files/CryptoAuthenticationLibrary/atca_cfgs.o
 .debug_info    0x0000000000000000      0xb0b build/AWS_IOT/production/mcc_generated_files/CryptoAuthenticationLibrary/atca_cfgs.o
 .debug_abbrev  0x0000000000000000       0xd3 build/AWS_IOT/production/mcc_generated_files/CryptoAuthenticationLibrary/atca_cfgs.o
 .debug_aranges
                0x0000000000000000       0x18 build/AWS_IOT/production/mcc_generated_files/CryptoAuthenticationLibrary/atca_cfgs.o
 .debug_line    0x0000000000000000       0xcb build/AWS_IOT/production/mcc_generated_files/CryptoAuthenticationLibrary/atca_cfgs.o
 .debug_str     0x0000000000000000        0x0 build/AWS_IOT/production/mcc_generated_files/CryptoAuthenticationLibrary/atca_cfgs.o
 .comment       0x0000000000000000       0x30 build/AWS_IOT/production/mcc_generated_files/CryptoAuthenticationLibrary/atca_cfgs.o
 .text          0x0000000000000000        0x0 build/AWS_IOT/production/mcc_generated_files/CryptoAuthenticationLibrary/atca_command.o
 .data          0x0000000000000000        0x0 build/AWS_IOT/production/mcc_generated_files/CryptoAuthenticationLibrary/atca_command.o
 .bss           0x0000000000000000        0x0 build/AWS_IOT/production/mcc_generated_files/CryptoAuthenticationLibrary/atca_command.o
 .text.atCheckMAC
                0x0000000000000000       0x14 build/AWS_IOT/production/mcc_generated_files/CryptoAuthenticationLibrary/atca_command.o
 .text.atCounter
                0x0000000000000000       0x14 build/AWS_IOT/production/mcc_generated_files/CryptoAuthenticationLibrary/atca_command.o
 .text.atDeriveKey
                0x0000000000000000       0x20 build/AWS_IOT/production/mcc_generated_files/CryptoAuthenticationLibrary/atca_command.o
 .text.atGenDig
                0x0000000000000000       0x2a build/AWS_IOT/production/mcc_generated_files/CryptoAuthenticationLibrary/atca_command.o
 .text.atHMAC   0x0000000000000000       0x14 build/AWS_IOT/production/mcc_generated_files/CryptoAuthenticationLibrary/atca_command.o
 .text.atInfo   0x0000000000000000       0x14 build/AWS_IOT/production/mcc_generated_files/CryptoAuthenticationLibrary/atca_command.o
 .text.atMAC    0x0000000000000000       0x20 build/AWS_IOT/production/mcc_generated_files/CryptoAuthenticationLibrary/atca_command.o
 .text.atPause  0x0000000000000000       0x14 build/AWS_IOT/production/mcc_generated_files/CryptoAuthenticationLibrary/atca_command.o
 .text.atPrivWrite
                0x0000000000000000       0x14 build/AWS_IOT/production/mcc_generated_files/CryptoAuthenticationLibrary/atca_command.o
 .text.atSecureBoot
                0x0000000000000000       0x32 build/AWS_IOT/production/mcc_generated_files/CryptoAuthenticationLibrary/atca_command.o
 .text.atSHA    0x0000000000000000       0x70 build/AWS_IOT/production/mcc_generated_files/CryptoAuthenticationLibrary/atca_command.o
 .progmem.gcc_sw_table.atSHA
                0x0000000000000000       0x10 build/AWS_IOT/production/mcc_generated_files/CryptoAuthenticationLibrary/atca_command.o
 .text.atUpdateExtra
                0x0000000000000000       0x14 build/AWS_IOT/production/mcc_generated_files/CryptoAuthenticationLibrary/atca_command.o
 .text.atWrite  0x0000000000000000       0x2e build/AWS_IOT/production/mcc_generated_files/CryptoAuthenticationLibrary/atca_command.o
 .text.atAES    0x0000000000000000       0x26 build/AWS_IOT/production/mcc_generated_files/CryptoAuthenticationLibrary/atca_command.o
 .text.atSelfTest
                0x0000000000000000       0x14 build/AWS_IOT/production/mcc_generated_files/CryptoAuthenticationLibrary/atca_command.o
 .text.atKDF    0x0000000000000000       0x24 build/AWS_IOT/production/mcc_generated_files/CryptoAuthenticationLibrary/atca_command.o
 .text.atIsSHAFamily
                0x0000000000000000        0xc build/AWS_IOT/production/mcc_generated_files/CryptoAuthenticationLibrary/atca_command.o
 .text.atIsECCFamily
                0x0000000000000000        0xe build/AWS_IOT/production/mcc_generated_files/CryptoAuthenticationLibrary/atca_command.o
 .text          0x0000000000000000        0x0 build/AWS_IOT/production/mcc_generated_files/CryptoAuthenticationLibrary/atca_device.o
 .data          0x0000000000000000        0x0 build/AWS_IOT/production/mcc_generated_files/CryptoAuthenticationLibrary/atca_device.o
 .bss           0x0000000000000000        0x0 build/AWS_IOT/production/mcc_generated_files/CryptoAuthenticationLibrary/atca_device.o
 .text.atGetCommands
                0x0000000000000000        0x8 build/AWS_IOT/production/mcc_generated_files/CryptoAuthenticationLibrary/atca_device.o
 .text.atGetIFace
                0x0000000000000000        0x8 build/AWS_IOT/production/mcc_generated_files/CryptoAuthenticationLibrary/atca_device.o
 .text          0x0000000000000000        0x0 build/AWS_IOT/production/mcc_generated_files/CryptoAuthenticationLibrary/atca_execution.o
 .data          0x0000000000000000        0x0 build/AWS_IOT/production/mcc_generated_files/CryptoAuthenticationLibrary/atca_execution.o
 .bss           0x0000000000000000        0x0 build/AWS_IOT/production/mcc_generated_files/CryptoAuthenticationLibrary/atca_execution.o
 .text          0x0000000000000000        0x0 build/AWS_IOT/production/mcc_generated_files/CryptoAuthenticationLibrary/atca_iface.o
 .data          0x0000000000000000        0x0 build/AWS_IOT/production/mcc_generated_files/CryptoAuthenticationLibrary/atca_iface.o
 .bss           0x0000000000000000        0x0 build/AWS_IOT/production/mcc_generated_files/CryptoAuthenticationLibrary/atca_iface.o
 .text.atsleep  0x0000000000000000       0x22 build/AWS_IOT/production/mcc_generated_files/CryptoAuthenticationLibrary/atca_iface.o
 .text.atgetifacehaldat
                0x0000000000000000        0x8 build/AWS_IOT/production/mcc_generated_files/CryptoAuthenticationLibrary/atca_iface.o
 .text          0x0000000000000000        0x0 build/AWS_IOT/production/mcc_generated_files/drivers/spi_master.o
 .data          0x0000000000000000        0x0 build/AWS_IOT/production/mcc_generated_files/drivers/spi_master.o
 .bss           0x0000000000000000        0x0 build/AWS_IOT/production/mcc_generated_files/drivers/spi_master.o
 .text.spi_master_open
                0x0000000000000000        0xe build/AWS_IOT/production/mcc_generated_files/drivers/spi_master.o
 .text          0x0000000000000000        0x0 build/AWS_IOT/production/mcc_generated_files/drivers/timeout.o
 .data          0x0000000000000000        0x0 build/AWS_IOT/production/mcc_generated_files/drivers/timeout.o
 .bss           0x0000000000000000        0x0 build/AWS_IOT/production/mcc_generated_files/drivers/timeout.o
 .text.timeout_hasPendingTimeouts
                0x0000000000000000       0x12 build/AWS_IOT/production/mcc_generated_files/drivers/timeout.o
 .text.timeout_hasPendingCallbacks
                0x0000000000000000       0x12 build/AWS_IOT/production/mcc_generated_files/drivers/timeout.o
 .text.setTimerDuration
                0x0000000000000000       0x5e build/AWS_IOT/production/mcc_generated_files/drivers/timeout.o
 .text.makeAbsolute
                0x0000000000000000       0x80 build/AWS_IOT/production/mcc_generated_files/drivers/timeout.o
 .text.timeout_getTimeRemaining
                0x0000000000000000       0x9a build/AWS_IOT/production/mcc_generated_files/drivers/timeout.o
 .text.rebaseList
                0x0000000000000000       0xd6 build/AWS_IOT/production/mcc_generated_files/drivers/timeout.o
 .rodata        0x0000000000000000        0xd build/AWS_IOT/production/mcc_generated_files/drivers/timeout.o
 .text.printList
                0x0000000000000000       0x58 build/AWS_IOT/production/mcc_generated_files/drivers/timeout.o
 .text.timeout_flushAll
                0x0000000000000000       0x46 build/AWS_IOT/production/mcc_generated_files/drivers/timeout.o
 .text.enqueueCallback
                0x0000000000000000       0x38 build/AWS_IOT/production/mcc_generated_files/drivers/timeout.o
 .text.timeout_startTimer
                0x0000000000000000        0xe build/AWS_IOT/production/mcc_generated_files/drivers/timeout.o
 .text.timeout_stopTimer
                0x0000000000000000       0xa4 build/AWS_IOT/production/mcc_generated_files/drivers/timeout.o
 .text          0x0000000000000000        0x0 build/AWS_IOT/production/mcc_generated_files/drivers/i2c_simple_master.o
 .data          0x0000000000000000        0x0 build/AWS_IOT/production/mcc_generated_files/drivers/i2c_simple_master.o
 .bss           0x0000000000000000        0x0 build/AWS_IOT/production/mcc_generated_files/drivers/i2c_simple_master.o
 .text.wr1RegCompleteHandler
                0x0000000000000000       0x18 build/AWS_IOT/production/mcc_generated_files/drivers/i2c_simple_master.o
 .text.rd1RegCompleteHandler
                0x0000000000000000       0x18 build/AWS_IOT/production/mcc_generated_files/drivers/i2c_simple_master.o
 .text.wr2RegCompleteHandler
                0x0000000000000000       0x18 build/AWS_IOT/production/mcc_generated_files/drivers/i2c_simple_master.o
 .text.rdBlkRegCompleteHandler
                0x0000000000000000       0x1e build/AWS_IOT/production/mcc_generated_files/drivers/i2c_simple_master.o
 .text.i2c_write1ByteRegister
                0x0000000000000000       0x5a build/AWS_IOT/production/mcc_generated_files/drivers/i2c_simple_master.o
 .text.i2c_read1ByteRegister
                0x0000000000000000       0x7a build/AWS_IOT/production/mcc_generated_files/drivers/i2c_simple_master.o
 .text.i2c_write2ByteRegister
                0x0000000000000000       0x60 build/AWS_IOT/production/mcc_generated_files/drivers/i2c_simple_master.o
 .text.i2c_readDataBlock
                0x0000000000000000       0x66 build/AWS_IOT/production/mcc_generated_files/drivers/i2c_simple_master.o
 .text          0x0000000000000000        0x0 build/AWS_IOT/production/mcc_generated_files/mqtt/mqtt_comm_bsd/mqtt_comm_layer.o
 .data          0x0000000000000000        0x0 build/AWS_IOT/production/mcc_generated_files/mqtt/mqtt_comm_bsd/mqtt_comm_layer.o
 .bss           0x0000000000000000        0x0 build/AWS_IOT/production/mcc_generated_files/mqtt/mqtt_comm_bsd/mqtt_comm_layer.o
 .text          0x0000000000000000        0x0 build/AWS_IOT/production/mcc_generated_files/mqtt/mqtt_core/mqtt_core.o
 .data          0x0000000000000000        0x0 build/AWS_IOT/production/mcc_generated_files/mqtt/mqtt_core/mqtt_core.o
 .bss           0x0000000000000000        0x0 build/AWS_IOT/production/mcc_generated_files/mqtt/mqtt_core/mqtt_core.o
 .text.MQTT_CreateUnsubscribePacket
                0x0000000000000000       0x80 build/AWS_IOT/production/mcc_generated_files/mqtt/mqtt_core/mqtt_core.o
 .text          0x0000000000000000        0x0 build/AWS_IOT/production/mcc_generated_files/mqtt/mqtt_exchange_buffer/mqtt_exchange_buffer.o
 .data          0x0000000000000000        0x0 build/AWS_IOT/production/mcc_generated_files/mqtt/mqtt_exchange_buffer/mqtt_exchange_buffer.o
 .bss           0x0000000000000000        0x0 build/AWS_IOT/production/mcc_generated_files/mqtt/mqtt_exchange_buffer/mqtt_exchange_buffer.o
 .text          0x0000000000000000        0x0 build/AWS_IOT/production/mcc_generated_files/mqtt/mqtt_packetTransfer_interface.o
 .data          0x0000000000000000        0x0 build/AWS_IOT/production/mcc_generated_files/mqtt/mqtt_packetTransfer_interface.o
 .bss           0x0000000000000000        0x0 build/AWS_IOT/production/mcc_generated_files/mqtt/mqtt_packetTransfer_interface.o
 .text          0x0000000000000000        0x0 build/AWS_IOT/production/mcc_generated_files/mqtt/mqtt_winc_adapter.o
 .data          0x0000000000000000        0x0 build/AWS_IOT/production/mcc_generated_files/mqtt/mqtt_winc_adapter.o
 .bss           0x0000000000000000        0x0 build/AWS_IOT/production/mcc_generated_files/mqtt/mqtt_winc_adapter.o
 .text.BSD_GetErrNo
                0x0000000000000000        0x6 build/AWS_IOT/production/mcc_generated_files/mqtt/mqtt_winc_adapter.o
 .text.BSD_GetRecvHandlerTable
                0x0000000000000000        0xa build/AWS_IOT/production/mcc_generated_files/mqtt/mqtt_winc_adapter.o
 .text.BSD_htonl
                0x0000000000000000       0x6a build/AWS_IOT/production/mcc_generated_files/mqtt/mqtt_winc_adapter.o
 .text.BSD_ntohl
                0x0000000000000000       0x6a build/AWS_IOT/production/mcc_generated_files/mqtt/mqtt_winc_adapter.o
 .text.BSD_ntohs
                0x0000000000000000        0x8 build/AWS_IOT/production/mcc_generated_files/mqtt/mqtt_winc_adapter.o
 .text.BSD_bind
                0x0000000000000000       0xbe build/AWS_IOT/production/mcc_generated_files/mqtt/mqtt_winc_adapter.o
 .text.BSD_recvfrom
                0x0000000000000000       0xb8 build/AWS_IOT/production/mcc_generated_files/mqtt/mqtt_winc_adapter.o
 .text.BSD_listen
                0x0000000000000000       0x4e build/AWS_IOT/production/mcc_generated_files/mqtt/mqtt_winc_adapter.o
 .text.BSD_accept
                0x0000000000000000       0x86 build/AWS_IOT/production/mcc_generated_files/mqtt/mqtt_winc_adapter.o
 .text.BSD_getsockopt
                0x0000000000000000        0xc build/AWS_IOT/production/mcc_generated_files/mqtt/mqtt_winc_adapter.o
 .text.BSD_setsockopt
                0x0000000000000000       0x9e build/AWS_IOT/production/mcc_generated_files/mqtt/mqtt_winc_adapter.o
 .text.BSD_write
                0x0000000000000000        0xc build/AWS_IOT/production/mcc_generated_files/mqtt/mqtt_winc_adapter.o
 .text.BSD_read
                0x0000000000000000        0xc build/AWS_IOT/production/mcc_generated_files/mqtt/mqtt_winc_adapter.o
 .text.BSD_poll
                0x0000000000000000        0xc build/AWS_IOT/production/mcc_generated_files/mqtt/mqtt_winc_adapter.o
 .text.BSD_sendto
                0x0000000000000000       0xfe build/AWS_IOT/production/mcc_generated_files/mqtt/mqtt_winc_adapter.o
 .bss.winc_sockaddr.3477
                0x0000000000000000       0x10 build/AWS_IOT/production/mcc_generated_files/mqtt/mqtt_winc_adapter.o
 .text          0x0000000000000000        0x0 build/AWS_IOT/production/mcc_generated_files/src/pin_manager.o
 .data          0x0000000000000000        0x0 build/AWS_IOT/production/mcc_generated_files/src/pin_manager.o
 .bss           0x0000000000000000        0x0 build/AWS_IOT/production/mcc_generated_files/src/pin_manager.o
 .text.PORTA_PA2_DefaultInterruptHandler
                0x0000000000000000        0x2 build/AWS_IOT/production/mcc_generated_files/src/pin_manager.o
 .text.PORTD_PD5_DefaultInterruptHandler
                0x0000000000000000        0x2 build/AWS_IOT/production/mcc_generated_files/src/pin_manager.o
 .text.PORTA_RST_DefaultInterruptHandler
                0x0000000000000000        0x2 build/AWS_IOT/production/mcc_generated_files/src/pin_manager.o
 .text.PORTA_PA4_DefaultInterruptHandler
                0x0000000000000000        0x2 build/AWS_IOT/production/mcc_generated_files/src/pin_manager.o
 .text.PORTA_PA3_DefaultInterruptHandler
                0x0000000000000000        0x2 build/AWS_IOT/production/mcc_generated_files/src/pin_manager.o
 .text.PORTA_PA6_DefaultInterruptHandler
                0x0000000000000000        0x2 build/AWS_IOT/production/mcc_generated_files/src/pin_manager.o
 .text.PORTA_PA5_DefaultInterruptHandler
                0x0000000000000000        0x2 build/AWS_IOT/production/mcc_generated_files/src/pin_manager.o
 .text.PORTA_nCS_DefaultInterruptHandler
                0x0000000000000000        0x2 build/AWS_IOT/production/mcc_generated_files/src/pin_manager.o
 .text.PORTD_LED_YELLOW_DefaultInterruptHandler
                0x0000000000000000        0x2 build/AWS_IOT/production/mcc_generated_files/src/pin_manager.o
 .text.PORTD_LED_RED_DefaultInterruptHandler
                0x0000000000000000        0x2 build/AWS_IOT/production/mcc_generated_files/src/pin_manager.o
 .text.PORTD_LED_BLUE_DefaultInterruptHandler
                0x0000000000000000        0x2 build/AWS_IOT/production/mcc_generated_files/src/pin_manager.o
 .text.PORTD_LED_GREEN_DefaultInterruptHandler
                0x0000000000000000        0x2 build/AWS_IOT/production/mcc_generated_files/src/pin_manager.o
 .text.PORTA_PA2_SetInterruptHandler
                0x0000000000000000        0x2 build/AWS_IOT/production/mcc_generated_files/src/pin_manager.o
 .text.PORTD_PD5_SetInterruptHandler
                0x0000000000000000        0x2 build/AWS_IOT/production/mcc_generated_files/src/pin_manager.o
 .text.PORTF_SW0_SetInterruptHandler
                0x0000000000000000        0xa build/AWS_IOT/production/mcc_generated_files/src/pin_manager.o
 .text.PORTA_RST_SetInterruptHandler
                0x0000000000000000        0x2 build/AWS_IOT/production/mcc_generated_files/src/pin_manager.o
 .text.PORTA_PA4_SetInterruptHandler
                0x0000000000000000        0x2 build/AWS_IOT/production/mcc_generated_files/src/pin_manager.o
 .text.PORTA_PA3_SetInterruptHandler
                0x0000000000000000        0x2 build/AWS_IOT/production/mcc_generated_files/src/pin_manager.o
 .text.PORTA_PA6_SetInterruptHandler
                0x0000000000000000        0x2 build/AWS_IOT/production/mcc_generated_files/src/pin_manager.o
 .text.PORTA_PA5_SetInterruptHandler
                0x0000000000000000        0x2 build/AWS_IOT/production/mcc_generated_files/src/pin_manager.o
 .text.PORTA_nCS_SetInterruptHandler
                0x0000000000000000        0x2 build/AWS_IOT/production/mcc_generated_files/src/pin_manager.o
 .text.PORTF_PF1_SetInterruptHandler
                0x0000000000000000        0xa build/AWS_IOT/production/mcc_generated_files/src/pin_manager.o
 .text.PORTF_PF0_SetInterruptHandler
                0x0000000000000000        0xa build/AWS_IOT/production/mcc_generated_files/src/pin_manager.o
 .text.PORTD_LED_YELLOW_SetInterruptHandler
                0x0000000000000000        0x2 build/AWS_IOT/production/mcc_generated_files/src/pin_manager.o
 .text.PORTF_CE_SetInterruptHandler
                0x0000000000000000        0xa build/AWS_IOT/production/mcc_generated_files/src/pin_manager.o
 .text.PORTD_LED_RED_SetInterruptHandler
                0x0000000000000000        0x2 build/AWS_IOT/production/mcc_generated_files/src/pin_manager.o
 .text.PORTF_SW1_SetInterruptHandler
                0x0000000000000000        0xa build/AWS_IOT/production/mcc_generated_files/src/pin_manager.o
 .text.PORTD_LED_BLUE_SetInterruptHandler
                0x0000000000000000        0x2 build/AWS_IOT/production/mcc_generated_files/src/pin_manager.o
 .text.PORTD_LED_GREEN_SetInterruptHandler
                0x0000000000000000        0x2 build/AWS_IOT/production/mcc_generated_files/src/pin_manager.o
 .text.PORTF_WAKE_SetInterruptHandler
                0x0000000000000000        0xa build/AWS_IOT/production/mcc_generated_files/src/pin_manager.o
 .text          0x0000000000000000        0x0 build/AWS_IOT/production/mcc_generated_files/src/cpuint.o
 .data          0x0000000000000000        0x0 build/AWS_IOT/production/mcc_generated_files/src/cpuint.o
 .bss           0x0000000000000000        0x0 build/AWS_IOT/production/mcc_generated_files/src/cpuint.o
 .text          0x0000000000000000        0x0 build/AWS_IOT/production/mcc_generated_files/src/spi0.o
 .data          0x0000000000000000        0x0 build/AWS_IOT/production/mcc_generated_files/src/spi0.o
 .bss           0x0000000000000000        0x0 build/AWS_IOT/production/mcc_generated_files/src/spi0.o
 .text.SPI0_Enable
                0x0000000000000000        0xc build/AWS_IOT/production/mcc_generated_files/src/spi0.o
 .text.SPI0_Disable
                0x0000000000000000        0xc build/AWS_IOT/production/mcc_generated_files/src/spi0.o
 .text.SPI0_Selected
                0x0000000000000000        0x4 build/AWS_IOT/production/mcc_generated_files/src/spi0.o
 .text.SPI0_GetRxData
                0x0000000000000000        0x6 build/AWS_IOT/production/mcc_generated_files/src/spi0.o
 .text.SPI0_WriteTxData
                0x0000000000000000        0x6 build/AWS_IOT/production/mcc_generated_files/src/spi0.o
 .text.SPI0_WaitDataready
                0x0000000000000000        0xc build/AWS_IOT/production/mcc_generated_files/src/spi0.o
 .text          0x0000000000000000        0x0 build/AWS_IOT/production/mcc_generated_files/src/protected_io.o
 .data          0x0000000000000000        0x0 build/AWS_IOT/production/mcc_generated_files/src/protected_io.o
 .bss           0x0000000000000000        0x0 build/AWS_IOT/production/mcc_generated_files/src/protected_io.o
 .text          0x0000000000000000        0x0 build/AWS_IOT/production/mcc_generated_files/src/rtc.o
 .data          0x0000000000000000        0x0 build/AWS_IOT/production/mcc_generated_files/src/rtc.o
 .bss           0x0000000000000000        0x0 build/AWS_IOT/production/mcc_generated_files/src/rtc.o
 .text.RTC_SetCMPIsrCallback
                0x0000000000000000        0xa build/AWS_IOT/production/mcc_generated_files/src/rtc.o
 .text.RTC_WritePeroid
                0x0000000000000000       0x16 build/AWS_IOT/production/mcc_generated_files/src/rtc.o
 .text.RTC_ReadPeriod
                0x0000000000000000        0xa build/AWS_IOT/production/mcc_generated_files/src/rtc.o
 .text.RTC_EnableCMPInterrupt
                0x0000000000000000        0xc build/AWS_IOT/production/mcc_generated_files/src/rtc.o
 .text.RTC_DisableCMPInterrupt
                0x0000000000000000        0xc build/AWS_IOT/production/mcc_generated_files/src/rtc.o
 .text.RTC_EnablePITInterrupt
                0x0000000000000000        0xc build/AWS_IOT/production/mcc_generated_files/src/rtc.o
 .text.RTC_DisablePITInterrupt
                0x0000000000000000        0xc build/AWS_IOT/production/mcc_generated_files/src/rtc.o
 .text          0x0000000000000000        0x0 build/AWS_IOT/production/mcc_generated_files/src/twi0_master.o
 .data          0x0000000000000000        0x0 build/AWS_IOT/production/mcc_generated_files/src/twi0_master.o
 .bss           0x0000000000000000        0x0 build/AWS_IOT/production/mcc_generated_files/src/twi0_master.o
 .text.I2C0_SetWriteCollisionCallback
                0x0000000000000000        0xc build/AWS_IOT/production/mcc_generated_files/src/twi0_master.o
 .text.I2C0_SetDataNackCallback
                0x0000000000000000        0xc build/AWS_IOT/production/mcc_generated_files/src/twi0_master.o
 .text.I2C0_SetTimeoutCallback
                0x0000000000000000        0xc build/AWS_IOT/production/mcc_generated_files/src/twi0_master.o
 .text.I2C0_SetAddress
                0x0000000000000000        0x6 build/AWS_IOT/production/mcc_generated_files/src/twi0_master.o
 .text.I2C0_MasterOpen
                0x0000000000000000        0x8 build/AWS_IOT/production/mcc_generated_files/src/twi0_master.o
 .text.I2C0_MasterClose
                0x0000000000000000        0x6 build/AWS_IOT/production/mcc_generated_files/src/twi0_master.o
 .text.I2C0_MasterEnableIrq
                0x0000000000000000        0xc build/AWS_IOT/production/mcc_generated_files/src/twi0_master.o
 .text.I2C0_MasterIsIrqEnabled
                0x0000000000000000       0x20 build/AWS_IOT/production/mcc_generated_files/src/twi0_master.o
 .text.I2C0_SetTimeout
                0x0000000000000000       0x1c build/AWS_IOT/production/mcc_generated_files/src/twi0_master.o
 .text.I2C0_MasterGetRxData
                0x0000000000000000        0x6 build/AWS_IOT/production/mcc_generated_files/src/twi0_master.o
 .text.I2C0_MasterTxData
                0x0000000000000000        0x6 build/AWS_IOT/production/mcc_generated_files/src/twi0_master.o
 .text.I2C0_MasterTxAddr
                0x0000000000000000        0x6 build/AWS_IOT/production/mcc_generated_files/src/twi0_master.o
 .text.I2C0_SetReturnStopCallback
                0x0000000000000000        0x4 build/AWS_IOT/production/mcc_generated_files/src/twi0_master.o
 .text.I2C0_SetReturnResetCallback
                0x0000000000000000        0x4 build/AWS_IOT/production/mcc_generated_files/src/twi0_master.o
 .text.I2C0_SetRestartReadCallback
                0x0000000000000000        0x4 build/AWS_IOT/production/mcc_generated_files/src/twi0_master.o
 .text          0x0000000000000000        0x0 build/AWS_IOT/production/mcc_generated_files/src/adc0.o
 .data          0x0000000000000000        0x0 build/AWS_IOT/production/mcc_generated_files/src/adc0.o
 .bss           0x0000000000000000        0x0 build/AWS_IOT/production/mcc_generated_files/src/adc0.o
 .text.ADC0_Enable
                0x0000000000000000        0xc build/AWS_IOT/production/mcc_generated_files/src/adc0.o
 .text.ADC0_Disable
                0x0000000000000000        0xc build/AWS_IOT/production/mcc_generated_files/src/adc0.o
 .text.ADC0_EnableAutoTrigger
                0x0000000000000000        0xc build/AWS_IOT/production/mcc_generated_files/src/adc0.o
 .text.ADC0_DisableAutoTrigger
                0x0000000000000000        0xc build/AWS_IOT/production/mcc_generated_files/src/adc0.o
 .text.ADC0_SetWindowHigh
                0x0000000000000000        0xa build/AWS_IOT/production/mcc_generated_files/src/adc0.o
 .text.ADC0_SetWindowLow
                0x0000000000000000        0xa build/AWS_IOT/production/mcc_generated_files/src/adc0.o
 .text.ADC0_SetWindowMode
                0x0000000000000000        0x6 build/AWS_IOT/production/mcc_generated_files/src/adc0.o
 .text.ADC0_SetWindowChannel
                0x0000000000000000        0x6 build/AWS_IOT/production/mcc_generated_files/src/adc0.o
 .text.ADC0_StartConversion
                0x0000000000000000        0xc build/AWS_IOT/production/mcc_generated_files/src/adc0.o
 .text.ADC0_GetConversionResult
                0x0000000000000000        0xa build/AWS_IOT/production/mcc_generated_files/src/adc0.o
 .text.ADC0_GetWindowResult
                0x0000000000000000       0x10 build/AWS_IOT/production/mcc_generated_files/src/adc0.o
 .text.ADC0_GetResolution
                0x0000000000000000       0x10 build/AWS_IOT/production/mcc_generated_files/src/adc0.o
 .text.ADC0_RegisterWindowCallback
                0x0000000000000000        0xa build/AWS_IOT/production/mcc_generated_files/src/adc0.o
 .text          0x0000000000000000        0x0 build/AWS_IOT/production/mcc_generated_files/src/usart2.o
 .data          0x0000000000000000        0x0 build/AWS_IOT/production/mcc_generated_files/src/usart2.o
 .bss           0x0000000000000000        0x0 build/AWS_IOT/production/mcc_generated_files/src/usart2.o
 .text.USART2_SetISRCb
                0x0000000000000000       0x1e build/AWS_IOT/production/mcc_generated_files/src/usart2.o
 .text.USART2_SetRXISRCb
                0x0000000000000000        0xa build/AWS_IOT/production/mcc_generated_files/src/usart2.o
 .text.USART2_SetTXISRCb
                0x0000000000000000        0xa build/AWS_IOT/production/mcc_generated_files/src/usart2.o
 .text.USART2_IsTxReady
                0x0000000000000000        0xe build/AWS_IOT/production/mcc_generated_files/src/usart2.o
 .text.USART2_IsTxBusy
                0x0000000000000000       0x10 build/AWS_IOT/production/mcc_generated_files/src/usart2.o
 .text.USART2_IsTxDone
                0x0000000000000000        0xc build/AWS_IOT/production/mcc_generated_files/src/usart2.o
 .text.USART2_Enable
                0x0000000000000000        0xc build/AWS_IOT/production/mcc_generated_files/src/usart2.o
 .text.USART2_EnableRx
                0x0000000000000000        0xc build/AWS_IOT/production/mcc_generated_files/src/usart2.o
 .text.USART2_EnableTx
                0x0000000000000000        0xc build/AWS_IOT/production/mcc_generated_files/src/usart2.o
 .text.USART2_Disable
                0x0000000000000000        0xc build/AWS_IOT/production/mcc_generated_files/src/usart2.o
 .text.USART2_GetData
                0x0000000000000000        0x6 build/AWS_IOT/production/mcc_generated_files/src/usart2.o
 .text          0x0000000000000000        0x0 build/AWS_IOT/production/mcc_generated_files/winc/driver/winc_spi.o
 .data          0x0000000000000000        0x0 build/AWS_IOT/production/mcc_generated_files/winc/driver/winc_spi.o
 .bss           0x0000000000000000        0x0 build/AWS_IOT/production/mcc_generated_files/winc/driver/winc_spi.o
 .text.winc_bus_write_reg_no_rsp
                0x0000000000000000       0x88 build/AWS_IOT/production/mcc_generated_files/winc/driver/winc_spi.o
 .text.winc_bus_reset
                0x0000000000000000       0x10 build/AWS_IOT/production/mcc_generated_files/winc/driver/winc_spi.o
 .rodata.u8CmdBuf.3406
                0x0000000000000000        0x4 build/AWS_IOT/production/mcc_generated_files/winc/driver/winc_spi.o
 .text          0x0000000000000000        0x0 build/AWS_IOT/production/mcc_generated_files/winc/driver/winc_adapter.o
 .data          0x0000000000000000        0x0 build/AWS_IOT/production/mcc_generated_files/winc/driver/winc_adapter.o
 .bss           0x0000000000000000        0x0 build/AWS_IOT/production/mcc_generated_files/winc/driver/winc_adapter.o
 .text          0x0000000000000000        0x0 build/AWS_IOT/production/mcc_generated_files/winc/driver/winc_hif.o
 .data          0x0000000000000000        0x0 build/AWS_IOT/production/mcc_generated_files/winc/driver/winc_hif.o
 .bss           0x0000000000000000        0x0 build/AWS_IOT/production/mcc_generated_files/winc/driver/winc_hif.o
 .text.winc_hif_set_power_save
                0x0000000000000000        0x6 build/AWS_IOT/production/mcc_generated_files/winc/driver/winc_hif.o
 .text          0x0000000000000000        0x0 build/AWS_IOT/production/mcc_generated_files/winc/driver/winc_asic.o
 .data          0x0000000000000000        0x0 build/AWS_IOT/production/mcc_generated_files/winc/driver/winc_asic.o
 .bss           0x0000000000000000        0x0 build/AWS_IOT/production/mcc_generated_files/winc/driver/winc_asic.o
 .text.winc_chip_reset
                0x0000000000000000       0x20 build/AWS_IOT/production/mcc_generated_files/winc/driver/winc_asic.o
 .text.winc_chip_deinit
                0x0000000000000000       0x1e build/AWS_IOT/production/mcc_generated_files/winc/driver/winc_asic.o
 .text.winc_chip_get_otp_mac_address
                0x0000000000000000       0xc0 build/AWS_IOT/production/mcc_generated_files/winc/driver/winc_asic.o
 .text.winc_chip_get_mac_address
                0x0000000000000000       0x90 build/AWS_IOT/production/mcc_generated_files/winc/driver/winc_asic.o
 .text          0x0000000000000000        0x0 build/AWS_IOT/production/mcc_generated_files/winc/driver/winc_drv.o
 .data          0x0000000000000000        0x0 build/AWS_IOT/production/mcc_generated_files/winc/driver/winc_drv.o
 .bss           0x0000000000000000        0x0 build/AWS_IOT/production/mcc_generated_files/winc/driver/winc_drv.o
 .text.winc_drv_deinit
                0x0000000000000000       0x34 build/AWS_IOT/production/mcc_generated_files/winc/driver/winc_drv.o
 .text          0x0000000000000000        0x0 build/AWS_IOT/production/mcc_generated_files/winc/m2m/m2m_ssl.o
 .data          0x0000000000000000        0x0 build/AWS_IOT/production/mcc_generated_files/winc/m2m/m2m_ssl.o
 .bss           0x0000000000000000        0x0 build/AWS_IOT/production/mcc_generated_files/winc/m2m/m2m_ssl.o
 .text.m2m_ssl_send_certs_to_winc
                0x0000000000000000      0x212 build/AWS_IOT/production/mcc_generated_files/winc/m2m/m2m_ssl.o
 .text          0x0000000000000000        0x0 build/AWS_IOT/production/mcc_generated_files/winc/m2m/m2m_wifi.o
 .data          0x0000000000000000        0x0 build/AWS_IOT/production/mcc_generated_files/winc/m2m/m2m_wifi.o
 .bss           0x0000000000000000        0x0 build/AWS_IOT/production/mcc_generated_files/winc/m2m/m2m_wifi.o
 .text.m2m_wifi_send_crl
                0x0000000000000000       0x3c build/AWS_IOT/production/mcc_generated_files/winc/m2m/m2m_wifi.o
 .text.m2m_wifi_deinit
                0x0000000000000000       0x10 build/AWS_IOT/production/mcc_generated_files/winc/m2m/m2m_wifi.o
 .text.m2m_wifi_delete_sc
                0x0000000000000000       0x3a build/AWS_IOT/production/mcc_generated_files/winc/m2m/m2m_wifi.o
 .text.m2m_wifi_connect_1x_tls
                0x0000000000000000      0x25a build/AWS_IOT/production/mcc_generated_files/winc/m2m/m2m_wifi.o
 .text.m2m_wifi_set_mac_address
                0x0000000000000000       0x3c build/AWS_IOT/production/mcc_generated_files/winc/m2m/m2m_wifi.o
 .text.m2m_wifi_set_static_ip
                0x0000000000000000       0x10 build/AWS_IOT/production/mcc_generated_files/winc/m2m/m2m_wifi.o
 .text.m2m_wifi_enable_dhcp
                0x0000000000000000       0x1a build/AWS_IOT/production/mcc_generated_files/winc/m2m/m2m_wifi.o
 .text.m2m_wifi_set_lsn_int
                0x0000000000000000       0x10 build/AWS_IOT/production/mcc_generated_files/winc/m2m/m2m_wifi.o
 .text.m2m_wifi_set_cust_InfoElement
                0x0000000000000000       0x28 build/AWS_IOT/production/mcc_generated_files/winc/m2m/m2m_wifi.o
 .text.m2m_wifi_set_scan_options
                0x0000000000000000       0x46 build/AWS_IOT/production/mcc_generated_files/winc/m2m/m2m_wifi.o
 .text.m2m_wifi_set_scan_region
                0x0000000000000000       0x2e build/AWS_IOT/production/mcc_generated_files/winc/m2m/m2m_wifi.o
 .text.m2m_wifi_request_scan
                0x0000000000000000       0x52 build/AWS_IOT/production/mcc_generated_files/winc/m2m/m2m_wifi.o
 .text.m2m_wifi_request_scan_passive
                0x0000000000000000       0x56 build/AWS_IOT/production/mcc_generated_files/winc/m2m/m2m_wifi.o
 .text.m2m_wifi_request_scan_ssid_list
                0x0000000000000000       0xc2 build/AWS_IOT/production/mcc_generated_files/winc/m2m/m2m_wifi.o
 .text.m2m_wifi_wps
                0x0000000000000000       0x46 build/AWS_IOT/production/mcc_generated_files/winc/m2m/m2m_wifi.o
 .text.m2m_wifi_wps_disable
                0x0000000000000000       0x12 build/AWS_IOT/production/mcc_generated_files/winc/m2m/m2m_wifi.o
 .text.m2m_wifi_req_client_ctrl
                0x0000000000000000        0x4 build/AWS_IOT/production/mcc_generated_files/winc/m2m/m2m_wifi.o
 .text.m2m_wifi_req_server_init
                0x0000000000000000        0x4 build/AWS_IOT/production/mcc_generated_files/winc/m2m/m2m_wifi.o
 .text.m2m_wifi_p2p
                0x0000000000000000       0x3c build/AWS_IOT/production/mcc_generated_files/winc/m2m/m2m_wifi.o
 .text.m2m_wifi_p2p_disconnect
                0x0000000000000000       0x12 build/AWS_IOT/production/mcc_generated_files/winc/m2m/m2m_wifi.o
 .text.m2m_wifi_enable_ap_ext
                0x0000000000000000       0x46 build/AWS_IOT/production/mcc_generated_files/winc/m2m/m2m_wifi.o
 .text.m2m_wifi_enable_ap
                0x0000000000000000       0x6e build/AWS_IOT/production/mcc_generated_files/winc/m2m/m2m_wifi.o
 .text.m2m_wifi_set_gains
                0x0000000000000000       0x18 build/AWS_IOT/production/mcc_generated_files/winc/m2m/m2m_wifi.o
 .text.m2m_wifi_disable_ap
                0x0000000000000000       0x12 build/AWS_IOT/production/mcc_generated_files/winc/m2m/m2m_wifi.o
 .text.m2m_wifi_req_curr_rssi
                0x0000000000000000       0x12 build/AWS_IOT/production/mcc_generated_files/winc/m2m/m2m_wifi.o
 .text.m2m_wifi_send_ethernet_pkt
                0x0000000000000000       0x6e build/AWS_IOT/production/mcc_generated_files/winc/m2m/m2m_wifi.o
 .text.m2m_wifi_get_otp_mac_address
                0x0000000000000000       0x3c build/AWS_IOT/production/mcc_generated_files/winc/m2m/m2m_wifi.o
 .text.m2m_wifi_get_mac_address
                0x0000000000000000       0x2a build/AWS_IOT/production/mcc_generated_files/winc/m2m/m2m_wifi.o
 .text.m2m_wifi_req_scan_result
                0x0000000000000000       0x2c build/AWS_IOT/production/mcc_generated_files/winc/m2m/m2m_wifi.o
 .text.m2m_wifi_get_num_ap_found
                0x0000000000000000        0x6 build/AWS_IOT/production/mcc_generated_files/winc/m2m/m2m_wifi.o
 .text.m2m_wifi_get_sleep_mode
                0x0000000000000000        0x6 build/AWS_IOT/production/mcc_generated_files/winc/m2m/m2m_wifi.o
 .text.m2m_wifi_set_sleep_mode
                0x0000000000000000       0x4c build/AWS_IOT/production/mcc_generated_files/winc/m2m/m2m_wifi.o
 .text.m2m_wifi_request_sleep
                0x0000000000000000       0x42 build/AWS_IOT/production/mcc_generated_files/winc/m2m/m2m_wifi.o
 .text.m2m_wifi_set_device_name
                0x0000000000000000       0x42 build/AWS_IOT/production/mcc_generated_files/winc/m2m/m2m_wifi.o
 .text.m2m_wifi_stop_provision_mode
                0x0000000000000000       0x12 build/AWS_IOT/production/mcc_generated_files/winc/m2m/m2m_wifi.o
 .text.m2m_wifi_get_connection_info
                0x0000000000000000       0x12 build/AWS_IOT/production/mcc_generated_files/winc/m2m/m2m_wifi.o
 .text.m2m_wifi_set_system_time
                0x0000000000000000       0x32 build/AWS_IOT/production/mcc_generated_files/winc/m2m/m2m_wifi.o
 .text.m2m_wifi_enable_sntp
                0x0000000000000000       0x1a build/AWS_IOT/production/mcc_generated_files/winc/m2m/m2m_wifi.o
 .text.m2m_wifi_set_power_profile
                0x0000000000000000       0x2c build/AWS_IOT/production/mcc_generated_files/winc/m2m/m2m_wifi.o
 .text.m2m_wifi_set_tx_power
                0x0000000000000000       0x2c build/AWS_IOT/production/mcc_generated_files/winc/m2m/m2m_wifi.o
 .text.m2m_wifi_set_gain_table_idx
                0x0000000000000000       0x2c build/AWS_IOT/production/mcc_generated_files/winc/m2m/m2m_wifi.o
 .text.m2m_wifi_enable_firmware_logs
                0x0000000000000000       0x2c build/AWS_IOT/production/mcc_generated_files/winc/m2m/m2m_wifi.o
 .text.m2m_wifi_set_battery_voltage
                0x0000000000000000       0x36 build/AWS_IOT/production/mcc_generated_files/winc/m2m/m2m_wifi.o
 .text.m2m_wifi_prng_get_random_bytes
                0x0000000000000000       0x52 build/AWS_IOT/production/mcc_generated_files/winc/m2m/m2m_wifi.o
 .text.m2m_wifi_conf_auto_rate
                0x0000000000000000       0x10 build/AWS_IOT/production/mcc_generated_files/winc/m2m/m2m_wifi.o
 .text.m2m_wifi_get_state
                0x0000000000000000        0x6 build/AWS_IOT/production/mcc_generated_files/winc/m2m/m2m_wifi.o
 .text.m2m_wifi_enable_roaming
                0x0000000000000000       0x38 build/AWS_IOT/production/mcc_generated_files/winc/m2m/m2m_wifi.o
 .text.m2m_wifi_disable_roaming
                0x0000000000000000       0x2c build/AWS_IOT/production/mcc_generated_files/winc/m2m/m2m_wifi.o
 .bss.genuPsMode
                0x0000000000000000        0x1 build/AWS_IOT/production/mcc_generated_files/winc/m2m/m2m_wifi.o
 .text          0x0000000000000000        0x0 build/AWS_IOT/production/mcc_generated_files/winc/m2m/m2m_periph.o
 .data          0x0000000000000000        0x0 build/AWS_IOT/production/mcc_generated_files/winc/m2m/m2m_periph.o
 .bss           0x0000000000000000        0x0 build/AWS_IOT/production/mcc_generated_files/winc/m2m/m2m_periph.o
 .debug_info    0x0000000000000000      0x27d build/AWS_IOT/production/mcc_generated_files/winc/m2m/m2m_periph.o
 .debug_abbrev  0x0000000000000000       0x1b build/AWS_IOT/production/mcc_generated_files/winc/m2m/m2m_periph.o
 .debug_aranges
                0x0000000000000000       0x18 build/AWS_IOT/production/mcc_generated_files/winc/m2m/m2m_periph.o
 .debug_line    0x0000000000000000       0x1a build/AWS_IOT/production/mcc_generated_files/winc/m2m/m2m_periph.o
 .debug_str     0x0000000000000000        0x0 build/AWS_IOT/production/mcc_generated_files/winc/m2m/m2m_periph.o
 .comment       0x0000000000000000       0x30 build/AWS_IOT/production/mcc_generated_files/winc/m2m/m2m_periph.o
 .text          0x0000000000000000        0x0 build/AWS_IOT/production/mcc_generated_files/winc/m2m/m2m_ota.o
 .data          0x0000000000000000        0x0 build/AWS_IOT/production/mcc_generated_files/winc/m2m/m2m_ota.o
 .bss           0x0000000000000000        0x0 build/AWS_IOT/production/mcc_generated_files/winc/m2m/m2m_ota.o
 .text.m2m_ota_cb
                0x0000000000000000      0x186 build/AWS_IOT/production/mcc_generated_files/winc/m2m/m2m_ota.o
 .text.m2m_ota_init
                0x0000000000000000       0x22 build/AWS_IOT/production/mcc_generated_files/winc/m2m/m2m_ota.o
 .text.m2m_ota_notif_set_url
                0x0000000000000000       0x1a build/AWS_IOT/production/mcc_generated_files/winc/m2m/m2m_ota.o
 .text.m2m_ota_notif_check_for_update
                0x0000000000000000       0x12 build/AWS_IOT/production/mcc_generated_files/winc/m2m/m2m_ota.o
 .text.m2m_ota_notif_sched
                0x0000000000000000       0x12 build/AWS_IOT/production/mcc_generated_files/winc/m2m/m2m_ota.o
 .text.m2m_ota_start_update
                0x0000000000000000       0x1a build/AWS_IOT/production/mcc_generated_files/winc/m2m/m2m_ota.o
 .text.m2m_ota_rollback
                0x0000000000000000       0x12 build/AWS_IOT/production/mcc_generated_files/winc/m2m/m2m_ota.o
 .text.m2m_ota_abort
                0x0000000000000000       0x12 build/AWS_IOT/production/mcc_generated_files/winc/m2m/m2m_ota.o
 .text.m2m_ota_switch_firmware
                0x0000000000000000       0x12 build/AWS_IOT/production/mcc_generated_files/winc/m2m/m2m_ota.o
 .text.m2m_ota_get_firmware_version
                0x0000000000000000       0x32 build/AWS_IOT/production/mcc_generated_files/winc/m2m/m2m_ota.o
 .text.m2m_ota_host_file_get
                0x0000000000000000       0x60 build/AWS_IOT/production/mcc_generated_files/winc/m2m/m2m_ota.o
 .text.m2m_ota_host_file_read_hif
                0x0000000000000000       0x5e build/AWS_IOT/production/mcc_generated_files/winc/m2m/m2m_ota.o
 .text.m2m_ota_host_file_read_spi
                0x0000000000000000      0x140 build/AWS_IOT/production/mcc_generated_files/winc/m2m/m2m_ota.o
 .text.m2m_ota_host_file_erase
                0x0000000000000000       0x3c build/AWS_IOT/production/mcc_generated_files/winc/m2m/m2m_ota.o
 .bss.u32FlashHFDSize.3510
                0x0000000000000000        0x4 build/AWS_IOT/production/mcc_generated_files/winc/m2m/m2m_ota.o
 .bss.u32FlashHFDStart.3509
                0x0000000000000000        0x4 build/AWS_IOT/production/mcc_generated_files/winc/m2m/m2m_ota.o
 .data.gu8CurrFileHandlerID
                0x0000000000000000        0x1 build/AWS_IOT/production/mcc_generated_files/winc/m2m/m2m_ota.o
 .bss.FileBlock
                0x0000000000000000        0x8 build/AWS_IOT/production/mcc_generated_files/winc/m2m/m2m_ota.o
 .bss.gpfHFDEraseCb
                0x0000000000000000        0x2 build/AWS_IOT/production/mcc_generated_files/winc/m2m/m2m_ota.o
 .bss.gpfHFDReadCb
                0x0000000000000000        0x2 build/AWS_IOT/production/mcc_generated_files/winc/m2m/m2m_ota.o
 .bss.gpfHFDGetCb
                0x0000000000000000        0x2 build/AWS_IOT/production/mcc_generated_files/winc/m2m/m2m_ota.o
 .bss.gpfOtaNotifCb
                0x0000000000000000        0x2 build/AWS_IOT/production/mcc_generated_files/winc/m2m/m2m_ota.o
 .bss.gpfOtaUpdateCb
                0x0000000000000000        0x2 build/AWS_IOT/production/mcc_generated_files/winc/m2m/m2m_ota.o
 .debug_info    0x0000000000000000     0x191b build/AWS_IOT/production/mcc_generated_files/winc/m2m/m2m_ota.o
 .debug_abbrev  0x0000000000000000      0x240 build/AWS_IOT/production/mcc_generated_files/winc/m2m/m2m_ota.o
 .debug_loc     0x0000000000000000      0xa54 build/AWS_IOT/production/mcc_generated_files/winc/m2m/m2m_ota.o
 .debug_aranges
                0x0000000000000000       0x88 build/AWS_IOT/production/mcc_generated_files/winc/m2m/m2m_ota.o
 .debug_ranges  0x0000000000000000       0x78 build/AWS_IOT/production/mcc_generated_files/winc/m2m/m2m_ota.o
 .debug_line    0x0000000000000000      0x558 build/AWS_IOT/production/mcc_generated_files/winc/m2m/m2m_ota.o
 .debug_str     0x0000000000000000      0x11b build/AWS_IOT/production/mcc_generated_files/winc/m2m/m2m_ota.o
 .comment       0x0000000000000000       0x30 build/AWS_IOT/production/mcc_generated_files/winc/m2m/m2m_ota.o
 .debug_frame   0x0000000000000000      0x17c build/AWS_IOT/production/mcc_generated_files/winc/m2m/m2m_ota.o
 .text          0x0000000000000000        0x0 build/AWS_IOT/production/mcc_generated_files/winc/m2m/m2m_fwinfo.o
 .data          0x0000000000000000        0x0 build/AWS_IOT/production/mcc_generated_files/winc/m2m/m2m_fwinfo.o
 .bss           0x0000000000000000        0x0 build/AWS_IOT/production/mcc_generated_files/winc/m2m/m2m_fwinfo.o
 .text          0x0000000000000000        0x0 build/AWS_IOT/production/mcc_generated_files/winc/m2m/m2m_crypto.o
 .data          0x0000000000000000        0x0 build/AWS_IOT/production/mcc_generated_files/winc/m2m/m2m_crypto.o
 .bss           0x0000000000000000        0x0 build/AWS_IOT/production/mcc_generated_files/winc/m2m/m2m_crypto.o
 .debug_info    0x0000000000000000      0x27d build/AWS_IOT/production/mcc_generated_files/winc/m2m/m2m_crypto.o
 .debug_abbrev  0x0000000000000000       0x1b build/AWS_IOT/production/mcc_generated_files/winc/m2m/m2m_crypto.o
 .debug_aranges
                0x0000000000000000       0x18 build/AWS_IOT/production/mcc_generated_files/winc/m2m/m2m_crypto.o
 .debug_line    0x0000000000000000       0x1a build/AWS_IOT/production/mcc_generated_files/winc/m2m/m2m_crypto.o
 .debug_str     0x0000000000000000        0x0 build/AWS_IOT/production/mcc_generated_files/winc/m2m/m2m_crypto.o
 .comment       0x0000000000000000       0x30 build/AWS_IOT/production/mcc_generated_files/winc/m2m/m2m_crypto.o
 .text          0x0000000000000000        0x0 build/AWS_IOT/production/mcc_generated_files/winc/socket/socket.o
 .data          0x0000000000000000        0x0 build/AWS_IOT/production/mcc_generated_files/winc/socket/socket.o
 .bss           0x0000000000000000        0x0 build/AWS_IOT/production/mcc_generated_files/winc/socket/socket.o
 .text.registerSocketEventCallback
                0x0000000000000000        0xa build/AWS_IOT/production/mcc_generated_files/winc/socket/socket.o
 .text.registerSocketResolveCallback
                0x0000000000000000        0xa build/AWS_IOT/production/mcc_generated_files/winc/socket/socket.o
 .text.bind     0x0000000000000000       0xb6 build/AWS_IOT/production/mcc_generated_files/winc/socket/socket.o
 .text.listen   0x0000000000000000       0x74 build/AWS_IOT/production/mcc_generated_files/winc/socket/socket.o
 .text.accept   0x0000000000000000       0x22 build/AWS_IOT/production/mcc_generated_files/winc/socket/socket.o
 .text.sendto   0x0000000000000000       0xf8 build/AWS_IOT/production/mcc_generated_files/winc/socket/socket.o
 .text.recvfrom
                0x0000000000000000      0x100 build/AWS_IOT/production/mcc_generated_files/winc/socket/socket.o
 .text.inet_addr
                0x0000000000000000      0x186 build/AWS_IOT/production/mcc_generated_files/winc/socket/socket.o
 .text.inet_ntop
                0x0000000000000000       0xce build/AWS_IOT/production/mcc_generated_files/winc/socket/socket.o
 .text.setsockopt
                0x0000000000000000      0x214 build/AWS_IOT/production/mcc_generated_files/winc/socket/socket.o
 .text.getsockopt
                0x0000000000000000        0x4 build/AWS_IOT/production/mcc_generated_files/winc/socket/socket.o
 .text.m2m_ping_req
                0x0000000000000000       0x98 build/AWS_IOT/production/mcc_generated_files/winc/socket/socket.o
 .text          0x0000000000000000        0x0 build/AWS_IOT/production/mcc_generated_files/winc/spi_flash/flexible_flash.o
 .data          0x0000000000000000        0x0 build/AWS_IOT/production/mcc_generated_files/winc/spi_flash/flexible_flash.o
 .bss           0x0000000000000000        0x0 build/AWS_IOT/production/mcc_generated_files/winc/spi_flash/flexible_flash.o
 .text.spi_flexible_flash_find_section
                0x0000000000000000      0x138 build/AWS_IOT/production/mcc_generated_files/winc/spi_flash/flexible_flash.o
 .debug_info    0x0000000000000000      0x469 build/AWS_IOT/production/mcc_generated_files/winc/spi_flash/flexible_flash.o
 .debug_abbrev  0x0000000000000000       0xd3 build/AWS_IOT/production/mcc_generated_files/winc/spi_flash/flexible_flash.o
 .debug_loc     0x0000000000000000      0x227 build/AWS_IOT/production/mcc_generated_files/winc/spi_flash/flexible_flash.o
 .debug_aranges
                0x0000000000000000       0x20 build/AWS_IOT/production/mcc_generated_files/winc/spi_flash/flexible_flash.o
 .debug_ranges  0x0000000000000000       0x10 build/AWS_IOT/production/mcc_generated_files/winc/spi_flash/flexible_flash.o
 .debug_line    0x0000000000000000      0x120 build/AWS_IOT/production/mcc_generated_files/winc/spi_flash/flexible_flash.o
 .debug_str     0x0000000000000000        0xf build/AWS_IOT/production/mcc_generated_files/winc/spi_flash/flexible_flash.o
 .comment       0x0000000000000000       0x30 build/AWS_IOT/production/mcc_generated_files/winc/spi_flash/flexible_flash.o
 .debug_frame   0x0000000000000000       0x7c build/AWS_IOT/production/mcc_generated_files/winc/spi_flash/flexible_flash.o
 .text          0x0000000000000000        0x0 build/AWS_IOT/production/mcc_generated_files/winc/spi_flash/spi_flash.o
 .data          0x0000000000000000        0x0 build/AWS_IOT/production/mcc_generated_files/winc/spi_flash/spi_flash.o
 .bss           0x0000000000000000        0x0 build/AWS_IOT/production/mcc_generated_files/winc/spi_flash/spi_flash.o
 .text.spi_flash_write_enable
                0x0000000000000000       0xa6 build/AWS_IOT/production/mcc_generated_files/winc/spi_flash/spi_flash.o
 .text.spi_flash_read_status_reg
                0x0000000000000000       0xd4 build/AWS_IOT/production/mcc_generated_files/winc/spi_flash/spi_flash.o
 .text.spi_flash_pp
                0x0000000000000000      0x1f2 build/AWS_IOT/production/mcc_generated_files/winc/spi_flash/spi_flash.o
 .text.spi_flash_enable
                0x0000000000000000      0x160 build/AWS_IOT/production/mcc_generated_files/winc/spi_flash/spi_flash.o
 .text.spi_flash_write
                0x0000000000000000       0xfa build/AWS_IOT/production/mcc_generated_files/winc/spi_flash/spi_flash.o
 .text.spi_flash_erase
                0x0000000000000000      0x1a4 build/AWS_IOT/production/mcc_generated_files/winc/spi_flash/spi_flash.o
 .text.spi_flash_get_size
                0x0000000000000000      0x14e build/AWS_IOT/production/mcc_generated_files/winc/spi_flash/spi_flash.o
 .bss.gu32InternalFlashSize
                0x0000000000000000        0x4 build/AWS_IOT/production/mcc_generated_files/winc/spi_flash/spi_flash.o
 .text          0x0000000000000000        0x0 build/AWS_IOT/production/mcc_generated_files/mcc.o
 .data          0x0000000000000000        0x0 build/AWS_IOT/production/mcc_generated_files/mcc.o
 .bss           0x0000000000000000        0x0 build/AWS_IOT/production/mcc_generated_files/mcc.o
 .text          0x0000000000000000        0x0 build/AWS_IOT/production/mcc_generated_files/delay.o
 .data          0x0000000000000000        0x0 build/AWS_IOT/production/mcc_generated_files/delay.o
 .bss           0x0000000000000000        0x0 build/AWS_IOT/production/mcc_generated_files/delay.o
 .text.DELAY_microseconds
                0x0000000000000000       0x30 build/AWS_IOT/production/mcc_generated_files/delay.o
 .text          0x0000000000000000        0x0 build/AWS_IOT/production/mcc_generated_files/device_config.o
 .data          0x0000000000000000        0x0 build/AWS_IOT/production/mcc_generated_files/device_config.o
 .bss           0x0000000000000000        0x0 build/AWS_IOT/production/mcc_generated_files/device_config.o
 .text          0x0000000000000000        0x0 build/AWS_IOT/production/mcc_generated_files/application_manager.o
 .data          0x0000000000000000        0x0 build/AWS_IOT/production/mcc_generated_files/application_manager.o
 .bss           0x0000000000000000        0x0 build/AWS_IOT/production/mcc_generated_files/application_manager.o
 .text.setToggleDebounceState
                0x0000000000000000        0x6 build/AWS_IOT/production/mcc_generated_files/application_manager.o
 .text.getToggleDebounceState
                0x0000000000000000        0x6 build/AWS_IOT/production/mcc_generated_files/application_manager.o
 .text          0x0000000000000000        0x0 build/AWS_IOT/production/mcc_generated_files/debug_print.o
 .data          0x0000000000000000        0x0 build/AWS_IOT/production/mcc_generated_files/debug_print.o
 .bss           0x0000000000000000        0x0 build/AWS_IOT/production/mcc_generated_files/debug_print.o
 .text          0x0000000000000000        0x0 build/AWS_IOT/production/mcc_generated_files/led.o
 .data          0x0000000000000000        0x0 build/AWS_IOT/production/mcc_generated_files/led.o
 .bss           0x0000000000000000        0x0 build/AWS_IOT/production/mcc_generated_files/led.o
 .text          0x0000000000000000        0x0 build/AWS_IOT/production/mcc_generated_files/sensors_handling.o
 .data          0x0000000000000000        0x0 build/AWS_IOT/production/mcc_generated_files/sensors_handling.o
 .bss           0x0000000000000000        0x0 build/AWS_IOT/production/mcc_generated_files/sensors_handling.o
 .text          0x0000000000000000        0x0 build/AWS_IOT/production/mcc_generated_files/time_service.o
 .data          0x0000000000000000        0x0 build/AWS_IOT/production/mcc_generated_files/time_service.o
 .bss           0x0000000000000000        0x0 build/AWS_IOT/production/mcc_generated_files/time_service.o
 .text.timeTicker
                0x0000000000000000       0x30 build/AWS_IOT/production/mcc_generated_files/time_service.o
 .text.TIME_setCurrent
                0x0000000000000000       0x12 build/AWS_IOT/production/mcc_generated_files/time_service.o
 .text.TIME_startTask
                0x0000000000000000       0x12 build/AWS_IOT/production/mcc_generated_files/time_service.o
 .text.TIME_endTask
                0x0000000000000000        0xa build/AWS_IOT/production/mcc_generated_files/time_service.o
 .text.TIME_getOffset_UNIX
                0x0000000000000000        0xa build/AWS_IOT/production/mcc_generated_files/time_service.o
 .data.timeTask
                0x0000000000000000        0xa build/AWS_IOT/production/mcc_generated_files/time_service.o
 .text          0x0000000000000000        0x0 build/AWS_IOT/production/mcc_generated_files/CryptoAuthenticationLibrary/CryptoAuth_init.o
 .data          0x0000000000000000        0x0 build/AWS_IOT/production/mcc_generated_files/CryptoAuthenticationLibrary/CryptoAuth_init.o
 .bss           0x0000000000000000        0x0 build/AWS_IOT/production/mcc_generated_files/CryptoAuthenticationLibrary/CryptoAuth_init.o
 .data._gMyDevice
                0x0000000000000000        0x4 build/AWS_IOT/production/mcc_generated_files/CryptoAuthenticationLibrary/CryptoAuth_init.o
 COMMON         0x0000000000000000       0x17 build/AWS_IOT/production/mcc_generated_files/CryptoAuthenticationLibrary/CryptoAuth_init.o
 .text          0x0000000000000000        0x0 build/AWS_IOT/production/main.o
 .data          0x0000000000000000        0x0 build/AWS_IOT/production/main.o
 .bss           0x0000000000000000        0x0 build/AWS_IOT/production/main.o
 .text          0x0000000000000000        0x0 /Applications/microchip/xc8/v2.10/avr/bin/../lib/gcc/avr/5.4.0/avrxmega3/libgcc.a(_udivmodhi4.o)
 .data          0x0000000000000000        0x0 /Applications/microchip/xc8/v2.10/avr/bin/../lib/gcc/avr/5.4.0/avrxmega3/libgcc.a(_udivmodhi4.o)
 .bss           0x0000000000000000        0x0 /Applications/microchip/xc8/v2.10/avr/bin/../lib/gcc/avr/5.4.0/avrxmega3/libgcc.a(_udivmodhi4.o)
 .text.libgcc.mul
                0x0000000000000000        0x0 /Applications/microchip/xc8/v2.10/avr/bin/../lib/gcc/avr/5.4.0/avrxmega3/libgcc.a(_udivmodhi4.o)
 .text.libgcc   0x0000000000000000        0x0 /Applications/microchip/xc8/v2.10/avr/bin/../lib/gcc/avr/5.4.0/avrxmega3/libgcc.a(_udivmodhi4.o)
 .text.libgcc.prologue
                0x0000000000000000        0x0 /Applications/microchip/xc8/v2.10/avr/bin/../lib/gcc/avr/5.4.0/avrxmega3/libgcc.a(_udivmodhi4.o)
 .text.libgcc.builtins
                0x0000000000000000        0x0 /Applications/microchip/xc8/v2.10/avr/bin/../lib/gcc/avr/5.4.0/avrxmega3/libgcc.a(_udivmodhi4.o)
 .text.libgcc.fmul
                0x0000000000000000        0x0 /Applications/microchip/xc8/v2.10/avr/bin/../lib/gcc/avr/5.4.0/avrxmega3/libgcc.a(_udivmodhi4.o)
 .text.libgcc.fixed
                0x0000000000000000        0x0 /Applications/microchip/xc8/v2.10/avr/bin/../lib/gcc/avr/5.4.0/avrxmega3/libgcc.a(_udivmodhi4.o)
 .text          0x0000000000000000        0x0 /Applications/microchip/xc8/v2.10/avr/bin/../lib/gcc/avr/5.4.0/avrxmega3/libgcc.a(_divmodhi4.o)
 .data          0x0000000000000000        0x0 /Applications/microchip/xc8/v2.10/avr/bin/../lib/gcc/avr/5.4.0/avrxmega3/libgcc.a(_divmodhi4.o)
 .bss           0x0000000000000000        0x0 /Applications/microchip/xc8/v2.10/avr/bin/../lib/gcc/avr/5.4.0/avrxmega3/libgcc.a(_divmodhi4.o)
 .text.libgcc.mul
                0x0000000000000000        0x0 /Applications/microchip/xc8/v2.10/avr/bin/../lib/gcc/avr/5.4.0/avrxmega3/libgcc.a(_divmodhi4.o)
 .text.libgcc   0x0000000000000000        0x0 /Applications/microchip/xc8/v2.10/avr/bin/../lib/gcc/avr/5.4.0/avrxmega3/libgcc.a(_divmodhi4.o)
 .text.libgcc.prologue
                0x0000000000000000        0x0 /Applications/microchip/xc8/v2.10/avr/bin/../lib/gcc/avr/5.4.0/avrxmega3/libgcc.a(_divmodhi4.o)
 .text.libgcc.builtins
                0x0000000000000000        0x0 /Applications/microchip/xc8/v2.10/avr/bin/../lib/gcc/avr/5.4.0/avrxmega3/libgcc.a(_divmodhi4.o)
 .text.libgcc.fmul
                0x0000000000000000        0x0 /Applications/microchip/xc8/v2.10/avr/bin/../lib/gcc/avr/5.4.0/avrxmega3/libgcc.a(_divmodhi4.o)
 .text.libgcc.fixed
                0x0000000000000000        0x0 /Applications/microchip/xc8/v2.10/avr/bin/../lib/gcc/avr/5.4.0/avrxmega3/libgcc.a(_divmodhi4.o)
 .text          0x0000000000000000        0x0 /Applications/microchip/xc8/v2.10/avr/bin/../lib/gcc/avr/5.4.0/avrxmega3/libgcc.a(_udivmodsi4.o)
 .data          0x0000000000000000        0x0 /Applications/microchip/xc8/v2.10/avr/bin/../lib/gcc/avr/5.4.0/avrxmega3/libgcc.a(_udivmodsi4.o)
 .bss           0x0000000000000000        0x0 /Applications/microchip/xc8/v2.10/avr/bin/../lib/gcc/avr/5.4.0/avrxmega3/libgcc.a(_udivmodsi4.o)
 .text.libgcc.mul
                0x0000000000000000        0x0 /Applications/microchip/xc8/v2.10/avr/bin/../lib/gcc/avr/5.4.0/avrxmega3/libgcc.a(_udivmodsi4.o)
 .text.libgcc   0x0000000000000000        0x0 /Applications/microchip/xc8/v2.10/avr/bin/../lib/gcc/avr/5.4.0/avrxmega3/libgcc.a(_udivmodsi4.o)
 .text.libgcc.prologue
                0x0000000000000000        0x0 /Applications/microchip/xc8/v2.10/avr/bin/../lib/gcc/avr/5.4.0/avrxmega3/libgcc.a(_udivmodsi4.o)
 .text.libgcc.builtins
                0x0000000000000000        0x0 /Applications/microchip/xc8/v2.10/avr/bin/../lib/gcc/avr/5.4.0/avrxmega3/libgcc.a(_udivmodsi4.o)
 .text.libgcc.fmul
                0x0000000000000000        0x0 /Applications/microchip/xc8/v2.10/avr/bin/../lib/gcc/avr/5.4.0/avrxmega3/libgcc.a(_udivmodsi4.o)
 .text.libgcc.fixed
                0x0000000000000000        0x0 /Applications/microchip/xc8/v2.10/avr/bin/../lib/gcc/avr/5.4.0/avrxmega3/libgcc.a(_udivmodsi4.o)
 .text          0x0000000000000000        0x0 /Applications/microchip/xc8/v2.10/avr/bin/../lib/gcc/avr/5.4.0/avrxmega3/libgcc.a(_exit.o)
 .data          0x0000000000000000        0x0 /Applications/microchip/xc8/v2.10/avr/bin/../lib/gcc/avr/5.4.0/avrxmega3/libgcc.a(_exit.o)
 .bss           0x0000000000000000        0x0 /Applications/microchip/xc8/v2.10/avr/bin/../lib/gcc/avr/5.4.0/avrxmega3/libgcc.a(_exit.o)
 .text.libgcc.mul
                0x0000000000000000        0x0 /Applications/microchip/xc8/v2.10/avr/bin/../lib/gcc/avr/5.4.0/avrxmega3/libgcc.a(_exit.o)
 .text.libgcc.div
                0x0000000000000000        0x0 /Applications/microchip/xc8/v2.10/avr/bin/../lib/gcc/avr/5.4.0/avrxmega3/libgcc.a(_exit.o)
 .text.libgcc   0x0000000000000000        0x0 /Applications/microchip/xc8/v2.10/avr/bin/../lib/gcc/avr/5.4.0/avrxmega3/libgcc.a(_exit.o)
 .text.libgcc.prologue
                0x0000000000000000        0x0 /Applications/microchip/xc8/v2.10/avr/bin/../lib/gcc/avr/5.4.0/avrxmega3/libgcc.a(_exit.o)
 .text.libgcc.builtins
                0x0000000000000000        0x0 /Applications/microchip/xc8/v2.10/avr/bin/../lib/gcc/avr/5.4.0/avrxmega3/libgcc.a(_exit.o)
 .text.libgcc.fmul
                0x0000000000000000        0x0 /Applications/microchip/xc8/v2.10/avr/bin/../lib/gcc/avr/5.4.0/avrxmega3/libgcc.a(_exit.o)
 .text.libgcc.fixed
                0x0000000000000000        0x0 /Applications/microchip/xc8/v2.10/avr/bin/../lib/gcc/avr/5.4.0/avrxmega3/libgcc.a(_exit.o)
 .text          0x0000000000000000        0x0 /Applications/microchip/xc8/v2.10/avr/bin/../lib/gcc/avr/5.4.0/avrxmega3/libgcc.a(_tablejump2.o)
 .data          0x0000000000000000        0x0 /Applications/microchip/xc8/v2.10/avr/bin/../lib/gcc/avr/5.4.0/avrxmega3/libgcc.a(_tablejump2.o)
 .bss           0x0000000000000000        0x0 /Applications/microchip/xc8/v2.10/avr/bin/../lib/gcc/avr/5.4.0/avrxmega3/libgcc.a(_tablejump2.o)
 .text.libgcc.mul
                0x0000000000000000        0x0 /Applications/microchip/xc8/v2.10/avr/bin/../lib/gcc/avr/5.4.0/avrxmega3/libgcc.a(_tablejump2.o)
 .text.libgcc.div
                0x0000000000000000        0x0 /Applications/microchip/xc8/v2.10/avr/bin/../lib/gcc/avr/5.4.0/avrxmega3/libgcc.a(_tablejump2.o)
 .text.libgcc.prologue
                0x0000000000000000        0x0 /Applications/microchip/xc8/v2.10/avr/bin/../lib/gcc/avr/5.4.0/avrxmega3/libgcc.a(_tablejump2.o)
 .text.libgcc.builtins
                0x0000000000000000        0x0 /Applications/microchip/xc8/v2.10/avr/bin/../lib/gcc/avr/5.4.0/avrxmega3/libgcc.a(_tablejump2.o)
 .text.libgcc.fmul
                0x0000000000000000        0x0 /Applications/microchip/xc8/v2.10/avr/bin/../lib/gcc/avr/5.4.0/avrxmega3/libgcc.a(_tablejump2.o)
 .text.libgcc.fixed
                0x0000000000000000        0x0 /Applications/microchip/xc8/v2.10/avr/bin/../lib/gcc/avr/5.4.0/avrxmega3/libgcc.a(_tablejump2.o)
 .text          0x0000000000000000        0x0 /Applications/microchip/xc8/v2.10/avr/bin/../lib/gcc/avr/5.4.0/avrxmega3/libgcc.a(_copy_data.o)
 .data          0x0000000000000000        0x0 /Applications/microchip/xc8/v2.10/avr/bin/../lib/gcc/avr/5.4.0/avrxmega3/libgcc.a(_copy_data.o)
 .bss           0x0000000000000000        0x0 /Applications/microchip/xc8/v2.10/avr/bin/../lib/gcc/avr/5.4.0/avrxmega3/libgcc.a(_copy_data.o)
 .text.libgcc.mul
                0x0000000000000000        0x0 /Applications/microchip/xc8/v2.10/avr/bin/../lib/gcc/avr/5.4.0/avrxmega3/libgcc.a(_copy_data.o)
 .text.libgcc.div
                0x0000000000000000        0x0 /Applications/microchip/xc8/v2.10/avr/bin/../lib/gcc/avr/5.4.0/avrxmega3/libgcc.a(_copy_data.o)
 .text.libgcc   0x0000000000000000        0x0 /Applications/microchip/xc8/v2.10/avr/bin/../lib/gcc/avr/5.4.0/avrxmega3/libgcc.a(_copy_data.o)
 .text.libgcc.prologue
                0x0000000000000000        0x0 /Applications/microchip/xc8/v2.10/avr/bin/../lib/gcc/avr/5.4.0/avrxmega3/libgcc.a(_copy_data.o)
 .text.libgcc.builtins
                0x0000000000000000        0x0 /Applications/microchip/xc8/v2.10/avr/bin/../lib/gcc/avr/5.4.0/avrxmega3/libgcc.a(_copy_data.o)
 .text.libgcc.fmul
                0x0000000000000000        0x0 /Applications/microchip/xc8/v2.10/avr/bin/../lib/gcc/avr/5.4.0/avrxmega3/libgcc.a(_copy_data.o)
 .text.libgcc.fixed
                0x0000000000000000        0x0 /Applications/microchip/xc8/v2.10/avr/bin/../lib/gcc/avr/5.4.0/avrxmega3/libgcc.a(_copy_data.o)
 .text          0x0000000000000000        0x0 /Applications/microchip/xc8/v2.10/avr/bin/../lib/gcc/avr/5.4.0/avrxmega3/libgcc.a(_umulhisi3.o)
 .data          0x0000000000000000        0x0 /Applications/microchip/xc8/v2.10/avr/bin/../lib/gcc/avr/5.4.0/avrxmega3/libgcc.a(_umulhisi3.o)
 .bss           0x0000000000000000        0x0 /Applications/microchip/xc8/v2.10/avr/bin/../lib/gcc/avr/5.4.0/avrxmega3/libgcc.a(_umulhisi3.o)
 .text.libgcc.div
                0x0000000000000000        0x0 /Applications/microchip/xc8/v2.10/avr/bin/../lib/gcc/avr/5.4.0/avrxmega3/libgcc.a(_umulhisi3.o)
 .text.libgcc   0x0000000000000000        0x0 /Applications/microchip/xc8/v2.10/avr/bin/../lib/gcc/avr/5.4.0/avrxmega3/libgcc.a(_umulhisi3.o)
 .text.libgcc.prologue
                0x0000000000000000        0x0 /Applications/microchip/xc8/v2.10/avr/bin/../lib/gcc/avr/5.4.0/avrxmega3/libgcc.a(_umulhisi3.o)
 .text.libgcc.builtins
                0x0000000000000000        0x0 /Applications/microchip/xc8/v2.10/avr/bin/../lib/gcc/avr/5.4.0/avrxmega3/libgcc.a(_umulhisi3.o)
 .text.libgcc.fmul
                0x0000000000000000        0x0 /Applications/microchip/xc8/v2.10/avr/bin/../lib/gcc/avr/5.4.0/avrxmega3/libgcc.a(_umulhisi3.o)
 .text.libgcc.fixed
                0x0000000000000000        0x0 /Applications/microchip/xc8/v2.10/avr/bin/../lib/gcc/avr/5.4.0/avrxmega3/libgcc.a(_umulhisi3.o)
 .text          0x0000000000000000        0x0 /Applications/microchip/xc8/v2.10/avr/bin/../lib/gcc/avr/5.4.0/avrxmega3/libgcc.a(_usmulhisi3.o)
 .data          0x0000000000000000        0x0 /Applications/microchip/xc8/v2.10/avr/bin/../lib/gcc/avr/5.4.0/avrxmega3/libgcc.a(_usmulhisi3.o)
 .bss           0x0000000000000000        0x0 /Applications/microchip/xc8/v2.10/avr/bin/../lib/gcc/avr/5.4.0/avrxmega3/libgcc.a(_usmulhisi3.o)
 .text.libgcc.div
                0x0000000000000000        0x0 /Applications/microchip/xc8/v2.10/avr/bin/../lib/gcc/avr/5.4.0/avrxmega3/libgcc.a(_usmulhisi3.o)
 .text.libgcc   0x0000000000000000        0x0 /Applications/microchip/xc8/v2.10/avr/bin/../lib/gcc/avr/5.4.0/avrxmega3/libgcc.a(_usmulhisi3.o)
 .text.libgcc.prologue
                0x0000000000000000        0x0 /Applications/microchip/xc8/v2.10/avr/bin/../lib/gcc/avr/5.4.0/avrxmega3/libgcc.a(_usmulhisi3.o)
 .text.libgcc.builtins
                0x0000000000000000        0x0 /Applications/microchip/xc8/v2.10/avr/bin/../lib/gcc/avr/5.4.0/avrxmega3/libgcc.a(_usmulhisi3.o)
 .text.libgcc.fmul
                0x0000000000000000        0x0 /Applications/microchip/xc8/v2.10/avr/bin/../lib/gcc/avr/5.4.0/avrxmega3/libgcc.a(_usmulhisi3.o)
 .text.libgcc.fixed
                0x0000000000000000        0x0 /Applications/microchip/xc8/v2.10/avr/bin/../lib/gcc/avr/5.4.0/avrxmega3/libgcc.a(_usmulhisi3.o)
 .text          0x0000000000000000        0x0 /Applications/microchip/xc8/v2.10/avr/bin/../lib/gcc/avr/5.4.0/avrxmega3/libgcc.a(_muluhisi3.o)
 .data          0x0000000000000000        0x0 /Applications/microchip/xc8/v2.10/avr/bin/../lib/gcc/avr/5.4.0/avrxmega3/libgcc.a(_muluhisi3.o)
 .bss           0x0000000000000000        0x0 /Applications/microchip/xc8/v2.10/avr/bin/../lib/gcc/avr/5.4.0/avrxmega3/libgcc.a(_muluhisi3.o)
 .text.libgcc.div
                0x0000000000000000        0x0 /Applications/microchip/xc8/v2.10/avr/bin/../lib/gcc/avr/5.4.0/avrxmega3/libgcc.a(_muluhisi3.o)
 .text.libgcc   0x0000000000000000        0x0 /Applications/microchip/xc8/v2.10/avr/bin/../lib/gcc/avr/5.4.0/avrxmega3/libgcc.a(_muluhisi3.o)
 .text.libgcc.prologue
                0x0000000000000000        0x0 /Applications/microchip/xc8/v2.10/avr/bin/../lib/gcc/avr/5.4.0/avrxmega3/libgcc.a(_muluhisi3.o)
 .text.libgcc.builtins
                0x0000000000000000        0x0 /Applications/microchip/xc8/v2.10/avr/bin/../lib/gcc/avr/5.4.0/avrxmega3/libgcc.a(_muluhisi3.o)
 .text.libgcc.fmul
                0x0000000000000000        0x0 /Applications/microchip/xc8/v2.10/avr/bin/../lib/gcc/avr/5.4.0/avrxmega3/libgcc.a(_muluhisi3.o)
 .text.libgcc.fixed
                0x0000000000000000        0x0 /Applications/microchip/xc8/v2.10/avr/bin/../lib/gcc/avr/5.4.0/avrxmega3/libgcc.a(_muluhisi3.o)
 .text          0x0000000000000000        0x0 /Applications/microchip/xc8/v2.10/avr/bin/../lib/gcc/avr/5.4.0/avrxmega3/libgcc.a(_mulshisi3.o)
 .data          0x0000000000000000        0x0 /Applications/microchip/xc8/v2.10/avr/bin/../lib/gcc/avr/5.4.0/avrxmega3/libgcc.a(_mulshisi3.o)
 .bss           0x0000000000000000        0x0 /Applications/microchip/xc8/v2.10/avr/bin/../lib/gcc/avr/5.4.0/avrxmega3/libgcc.a(_mulshisi3.o)
 .text.libgcc.mul
                0x0000000000000000       0x10 /Applications/microchip/xc8/v2.10/avr/bin/../lib/gcc/avr/5.4.0/avrxmega3/libgcc.a(_mulshisi3.o)
 .text.libgcc.div
                0x0000000000000000        0x0 /Applications/microchip/xc8/v2.10/avr/bin/../lib/gcc/avr/5.4.0/avrxmega3/libgcc.a(_mulshisi3.o)
 .text.libgcc   0x0000000000000000        0x0 /Applications/microchip/xc8/v2.10/avr/bin/../lib/gcc/avr/5.4.0/avrxmega3/libgcc.a(_mulshisi3.o)
 .text.libgcc.prologue
                0x0000000000000000        0x0 /Applications/microchip/xc8/v2.10/avr/bin/../lib/gcc/avr/5.4.0/avrxmega3/libgcc.a(_mulshisi3.o)
 .text.libgcc.builtins
                0x0000000000000000        0x0 /Applications/microchip/xc8/v2.10/avr/bin/../lib/gcc/avr/5.4.0/avrxmega3/libgcc.a(_mulshisi3.o)
 .text.libgcc.fmul
                0x0000000000000000        0x0 /Applications/microchip/xc8/v2.10/avr/bin/../lib/gcc/avr/5.4.0/avrxmega3/libgcc.a(_mulshisi3.o)
 .text.libgcc.fixed
                0x0000000000000000        0x0 /Applications/microchip/xc8/v2.10/avr/bin/../lib/gcc/avr/5.4.0/avrxmega3/libgcc.a(_mulshisi3.o)
 .text          0x0000000000000000        0x0 /Applications/microchip/xc8/v2.10/avr/bin/../lib/gcc/avr/5.4.0/../../../../avr/lib/avrxmega3/libc.a(atoi_M.o)
 .data          0x0000000000000000        0x0 /Applications/microchip/xc8/v2.10/avr/bin/../lib/gcc/avr/5.4.0/../../../../avr/lib/avrxmega3/libc.a(atoi_M.o)
 .bss           0x0000000000000000        0x0 /Applications/microchip/xc8/v2.10/avr/bin/../lib/gcc/avr/5.4.0/../../../../avr/lib/avrxmega3/libc.a(atoi_M.o)
 .text          0x0000000000000000        0x0 /Applications/microchip/xc8/v2.10/avr/bin/../lib/gcc/avr/5.4.0/../../../../avr/lib/avrxmega3/libc.a(atol.o)
 .data          0x0000000000000000        0x0 /Applications/microchip/xc8/v2.10/avr/bin/../lib/gcc/avr/5.4.0/../../../../avr/lib/avrxmega3/libc.a(atol.o)
 .bss           0x0000000000000000        0x0 /Applications/microchip/xc8/v2.10/avr/bin/../lib/gcc/avr/5.4.0/../../../../avr/lib/avrxmega3/libc.a(atol.o)
 .text          0x0000000000000000        0x0 /Applications/microchip/xc8/v2.10/avr/bin/../lib/gcc/avr/5.4.0/../../../../avr/lib/avrxmega3/libc.a(tolower.o)
 .data          0x0000000000000000        0x0 /Applications/microchip/xc8/v2.10/avr/bin/../lib/gcc/avr/5.4.0/../../../../avr/lib/avrxmega3/libc.a(tolower.o)
 .bss           0x0000000000000000        0x0 /Applications/microchip/xc8/v2.10/avr/bin/../lib/gcc/avr/5.4.0/../../../../avr/lib/avrxmega3/libc.a(tolower.o)
 .text.avrlibc  0x0000000000000000       0x10 /Applications/microchip/xc8/v2.10/avr/bin/../lib/gcc/avr/5.4.0/../../../../avr/lib/avrxmega3/libc.a(tolower.o)
 .text          0x0000000000000000        0x0 /Applications/microchip/xc8/v2.10/avr/bin/../lib/gcc/avr/5.4.0/../../../../avr/lib/avrxmega3/libc.a(toupper.o)
 .data          0x0000000000000000        0x0 /Applications/microchip/xc8/v2.10/avr/bin/../lib/gcc/avr/5.4.0/../../../../avr/lib/avrxmega3/libc.a(toupper.o)
 .bss           0x0000000000000000        0x0 /Applications/microchip/xc8/v2.10/avr/bin/../lib/gcc/avr/5.4.0/../../../../avr/lib/avrxmega3/libc.a(toupper.o)
 .text.avrlibc  0x0000000000000000       0x10 /Applications/microchip/xc8/v2.10/avr/bin/../lib/gcc/avr/5.4.0/../../../../avr/lib/avrxmega3/libc.a(toupper.o)
 .text          0x0000000000000000        0x0 /Applications/microchip/xc8/v2.10/avr/bin/../lib/gcc/avr/5.4.0/../../../../avr/lib/avrxmega3/libc.a(strtok.o)
 .data          0x0000000000000000        0x0 /Applications/microchip/xc8/v2.10/avr/bin/../lib/gcc/avr/5.4.0/../../../../avr/lib/avrxmega3/libc.a(strtok.o)
 .text          0x0000000000000000        0x0 /Applications/microchip/xc8/v2.10/avr/bin/../lib/gcc/avr/5.4.0/../../../../avr/lib/avrxmega3/libc.a(memcmp.o)
 .data          0x0000000000000000        0x0 /Applications/microchip/xc8/v2.10/avr/bin/../lib/gcc/avr/5.4.0/../../../../avr/lib/avrxmega3/libc.a(memcmp.o)
 .bss           0x0000000000000000        0x0 /Applications/microchip/xc8/v2.10/avr/bin/../lib/gcc/avr/5.4.0/../../../../avr/lib/avrxmega3/libc.a(memcmp.o)
 .text          0x0000000000000000        0x0 /Applications/microchip/xc8/v2.10/avr/bin/../lib/gcc/avr/5.4.0/../../../../avr/lib/avrxmega3/libc.a(memcpy.o)
 .data          0x0000000000000000        0x0 /Applications/microchip/xc8/v2.10/avr/bin/../lib/gcc/avr/5.4.0/../../../../avr/lib/avrxmega3/libc.a(memcpy.o)
 .bss           0x0000000000000000        0x0 /Applications/microchip/xc8/v2.10/avr/bin/../lib/gcc/avr/5.4.0/../../../../avr/lib/avrxmega3/libc.a(memcpy.o)
 .text          0x0000000000000000        0x0 /Applications/microchip/xc8/v2.10/avr/bin/../lib/gcc/avr/5.4.0/../../../../avr/lib/avrxmega3/libc.a(memmove.o)
 .data          0x0000000000000000        0x0 /Applications/microchip/xc8/v2.10/avr/bin/../lib/gcc/avr/5.4.0/../../../../avr/lib/avrxmega3/libc.a(memmove.o)
 .bss           0x0000000000000000        0x0 /Applications/microchip/xc8/v2.10/avr/bin/../lib/gcc/avr/5.4.0/../../../../avr/lib/avrxmega3/libc.a(memmove.o)
 .text.avrlibc  0x0000000000000000       0x24 /Applications/microchip/xc8/v2.10/avr/bin/../lib/gcc/avr/5.4.0/../../../../avr/lib/avrxmega3/libc.a(memmove.o)
 .text          0x0000000000000000        0x0 /Applications/microchip/xc8/v2.10/avr/bin/../lib/gcc/avr/5.4.0/../../../../avr/lib/avrxmega3/libc.a(memset.o)
 .data          0x0000000000000000        0x0 /Applications/microchip/xc8/v2.10/avr/bin/../lib/gcc/avr/5.4.0/../../../../avr/lib/avrxmega3/libc.a(memset.o)
 .bss           0x0000000000000000        0x0 /Applications/microchip/xc8/v2.10/avr/bin/../lib/gcc/avr/5.4.0/../../../../avr/lib/avrxmega3/libc.a(memset.o)
 .text          0x0000000000000000        0x0 /Applications/microchip/xc8/v2.10/avr/bin/../lib/gcc/avr/5.4.0/../../../../avr/lib/avrxmega3/libc.a(strchr.o)
 .data          0x0000000000000000        0x0 /Applications/microchip/xc8/v2.10/avr/bin/../lib/gcc/avr/5.4.0/../../../../avr/lib/avrxmega3/libc.a(strchr.o)
 .bss           0x0000000000000000        0x0 /Applications/microchip/xc8/v2.10/avr/bin/../lib/gcc/avr/5.4.0/../../../../avr/lib/avrxmega3/libc.a(strchr.o)
 .text          0x0000000000000000        0x0 /Applications/microchip/xc8/v2.10/avr/bin/../lib/gcc/avr/5.4.0/../../../../avr/lib/avrxmega3/libc.a(strcmp.o)
 .data          0x0000000000000000        0x0 /Applications/microchip/xc8/v2.10/avr/bin/../lib/gcc/avr/5.4.0/../../../../avr/lib/avrxmega3/libc.a(strcmp.o)
 .bss           0x0000000000000000        0x0 /Applications/microchip/xc8/v2.10/avr/bin/../lib/gcc/avr/5.4.0/../../../../avr/lib/avrxmega3/libc.a(strcmp.o)
 .text          0x0000000000000000        0x0 /Applications/microchip/xc8/v2.10/avr/bin/../lib/gcc/avr/5.4.0/../../../../avr/lib/avrxmega3/libc.a(strcpy.o)
 .data          0x0000000000000000        0x0 /Applications/microchip/xc8/v2.10/avr/bin/../lib/gcc/avr/5.4.0/../../../../avr/lib/avrxmega3/libc.a(strcpy.o)
 .bss           0x0000000000000000        0x0 /Applications/microchip/xc8/v2.10/avr/bin/../lib/gcc/avr/5.4.0/../../../../avr/lib/avrxmega3/libc.a(strcpy.o)
 .text          0x0000000000000000        0x0 /Applications/microchip/xc8/v2.10/avr/bin/../lib/gcc/avr/5.4.0/../../../../avr/lib/avrxmega3/libc.a(strncmp.o)
 .data          0x0000000000000000        0x0 /Applications/microchip/xc8/v2.10/avr/bin/../lib/gcc/avr/5.4.0/../../../../avr/lib/avrxmega3/libc.a(strncmp.o)
 .bss           0x0000000000000000        0x0 /Applications/microchip/xc8/v2.10/avr/bin/../lib/gcc/avr/5.4.0/../../../../avr/lib/avrxmega3/libc.a(strncmp.o)
 .text          0x0000000000000000        0x0 /Applications/microchip/xc8/v2.10/avr/bin/../lib/gcc/avr/5.4.0/../../../../avr/lib/avrxmega3/libc.a(strncpy.o)
 .data          0x0000000000000000        0x0 /Applications/microchip/xc8/v2.10/avr/bin/../lib/gcc/avr/5.4.0/../../../../avr/lib/avrxmega3/libc.a(strncpy.o)
 .bss           0x0000000000000000        0x0 /Applications/microchip/xc8/v2.10/avr/bin/../lib/gcc/avr/5.4.0/../../../../avr/lib/avrxmega3/libc.a(strncpy.o)
 .text          0x0000000000000000        0x0 /Applications/microchip/xc8/v2.10/avr/bin/../lib/gcc/avr/5.4.0/../../../../avr/lib/avrxmega3/libc.a(strstr.o)
 .data          0x0000000000000000        0x0 /Applications/microchip/xc8/v2.10/avr/bin/../lib/gcc/avr/5.4.0/../../../../avr/lib/avrxmega3/libc.a(strstr.o)
 .bss           0x0000000000000000        0x0 /Applications/microchip/xc8/v2.10/avr/bin/../lib/gcc/avr/5.4.0/../../../../avr/lib/avrxmega3/libc.a(strstr.o)
 .text          0x0000000000000000        0x0 /Applications/microchip/xc8/v2.10/avr/bin/../lib/gcc/avr/5.4.0/../../../../avr/lib/avrxmega3/libc.a(strtok_r.o)
 .data          0x0000000000000000        0x0 /Applications/microchip/xc8/v2.10/avr/bin/../lib/gcc/avr/5.4.0/../../../../avr/lib/avrxmega3/libc.a(strtok_r.o)
 .bss           0x0000000000000000        0x0 /Applications/microchip/xc8/v2.10/avr/bin/../lib/gcc/avr/5.4.0/../../../../avr/lib/avrxmega3/libc.a(strtok_r.o)
 .text          0x0000000000000000        0x0 /Applications/microchip/xc8/v2.10/avr/bin/../lib/gcc/avr/5.4.0/../../../../avr/lib/avrxmega3/libc.a(mulsi10.o)
 .data          0x0000000000000000        0x0 /Applications/microchip/xc8/v2.10/avr/bin/../lib/gcc/avr/5.4.0/../../../../avr/lib/avrxmega3/libc.a(mulsi10.o)
 .bss           0x0000000000000000        0x0 /Applications/microchip/xc8/v2.10/avr/bin/../lib/gcc/avr/5.4.0/../../../../avr/lib/avrxmega3/libc.a(mulsi10.o)
 .text          0x0000000000000000        0x0 /Applications/microchip/xc8/v2.10/avr/bin/../lib/gcc/avr/5.4.0/../../../../avr/lib/avrxmega3/libc.a(iob.o)
 .data          0x0000000000000000        0x0 /Applications/microchip/xc8/v2.10/avr/bin/../lib/gcc/avr/5.4.0/../../../../avr/lib/avrxmega3/libc.a(iob.o)
 .bss           0x0000000000000000        0x0 /Applications/microchip/xc8/v2.10/avr/bin/../lib/gcc/avr/5.4.0/../../../../avr/lib/avrxmega3/libc.a(iob.o)
 .text          0x0000000000000000        0x0 /Applications/microchip/xc8/v2.10/avr/bin/../lib/gcc/avr/5.4.0/../../../../avr/lib/avrxmega3/libc.a(printf.o)
 .data          0x0000000000000000        0x0 /Applications/microchip/xc8/v2.10/avr/bin/../lib/gcc/avr/5.4.0/../../../../avr/lib/avrxmega3/libc.a(printf.o)
 .bss           0x0000000000000000        0x0 /Applications/microchip/xc8/v2.10/avr/bin/../lib/gcc/avr/5.4.0/../../../../avr/lib/avrxmega3/libc.a(printf.o)
 .text          0x0000000000000000        0x0 /Applications/microchip/xc8/v2.10/avr/bin/../lib/gcc/avr/5.4.0/../../../../avr/lib/avrxmega3/libc.a(puts.o)
 .data          0x0000000000000000        0x0 /Applications/microchip/xc8/v2.10/avr/bin/../lib/gcc/avr/5.4.0/../../../../avr/lib/avrxmega3/libc.a(puts.o)
 .bss           0x0000000000000000        0x0 /Applications/microchip/xc8/v2.10/avr/bin/../lib/gcc/avr/5.4.0/../../../../avr/lib/avrxmega3/libc.a(puts.o)
 .text          0x0000000000000000        0x0 /Applications/microchip/xc8/v2.10/avr/bin/../lib/gcc/avr/5.4.0/../../../../avr/lib/avrxmega3/libc.a(snprintf.o)
 .data          0x0000000000000000        0x0 /Applications/microchip/xc8/v2.10/avr/bin/../lib/gcc/avr/5.4.0/../../../../avr/lib/avrxmega3/libc.a(snprintf.o)
 .bss           0x0000000000000000        0x0 /Applications/microchip/xc8/v2.10/avr/bin/../lib/gcc/avr/5.4.0/../../../../avr/lib/avrxmega3/libc.a(snprintf.o)
 .text.avrlibc  0x0000000000000000       0x60 /Applications/microchip/xc8/v2.10/avr/bin/../lib/gcc/avr/5.4.0/../../../../avr/lib/avrxmega3/libc.a(snprintf.o)
 .comment       0x0000000000000000       0x2d /Applications/microchip/xc8/v2.10/avr/bin/../lib/gcc/avr/5.4.0/../../../../avr/lib/avrxmega3/libc.a(snprintf.o)
 .text          0x0000000000000000        0x0 /Applications/microchip/xc8/v2.10/avr/bin/../lib/gcc/avr/5.4.0/../../../../avr/lib/avrxmega3/libc.a(sprintf.o)
 .data          0x0000000000000000        0x0 /Applications/microchip/xc8/v2.10/avr/bin/../lib/gcc/avr/5.4.0/../../../../avr/lib/avrxmega3/libc.a(sprintf.o)
 .bss           0x0000000000000000        0x0 /Applications/microchip/xc8/v2.10/avr/bin/../lib/gcc/avr/5.4.0/../../../../avr/lib/avrxmega3/libc.a(sprintf.o)
 .text          0x0000000000000000        0x0 /Applications/microchip/xc8/v2.10/avr/bin/../lib/gcc/avr/5.4.0/../../../../avr/lib/avrxmega3/libc.a(vprintf.o)
 .data          0x0000000000000000        0x0 /Applications/microchip/xc8/v2.10/avr/bin/../lib/gcc/avr/5.4.0/../../../../avr/lib/avrxmega3/libc.a(vprintf.o)
 .bss           0x0000000000000000        0x0 /Applications/microchip/xc8/v2.10/avr/bin/../lib/gcc/avr/5.4.0/../../../../avr/lib/avrxmega3/libc.a(vprintf.o)
 .data          0x0000000000000000        0x0 /Applications/microchip/xc8/v2.10/avr/bin/../lib/gcc/avr/5.4.0/../../../../avr/lib/avrxmega3/libc.a(ctime.o)
 .bss           0x0000000000000000        0x0 /Applications/microchip/xc8/v2.10/avr/bin/../lib/gcc/avr/5.4.0/../../../../avr/lib/avrxmega3/libc.a(ctime.o)
 .data          0x0000000000000000        0x0 /Applications/microchip/xc8/v2.10/avr/bin/../lib/gcc/avr/5.4.0/../../../../avr/lib/avrxmega3/libc.a(difftime.o)
 .bss           0x0000000000000000        0x0 /Applications/microchip/xc8/v2.10/avr/bin/../lib/gcc/avr/5.4.0/../../../../avr/lib/avrxmega3/libc.a(difftime.o)
 .data          0x0000000000000000        0x0 /Applications/microchip/xc8/v2.10/avr/bin/../lib/gcc/avr/5.4.0/../../../../avr/lib/avrxmega3/libc.a(localtime_r.o)
 .bss           0x0000000000000000        0x0 /Applications/microchip/xc8/v2.10/avr/bin/../lib/gcc/avr/5.4.0/../../../../avr/lib/avrxmega3/libc.a(localtime_r.o)
 .data          0x0000000000000000        0x0 /Applications/microchip/xc8/v2.10/avr/bin/../lib/gcc/avr/5.4.0/../../../../avr/lib/avrxmega3/libc.a(mktime.o)
 .bss           0x0000000000000000        0x0 /Applications/microchip/xc8/v2.10/avr/bin/../lib/gcc/avr/5.4.0/../../../../avr/lib/avrxmega3/libc.a(mktime.o)
 .data          0x0000000000000000        0x0 /Applications/microchip/xc8/v2.10/avr/bin/../lib/gcc/avr/5.4.0/../../../../avr/lib/avrxmega3/libc.a(set_system_time.o)
 .bss           0x0000000000000000        0x0 /Applications/microchip/xc8/v2.10/avr/bin/../lib/gcc/avr/5.4.0/../../../../avr/lib/avrxmega3/libc.a(set_system_time.o)
 .text          0x0000000000000000        0x0 /Applications/microchip/xc8/v2.10/avr/bin/../lib/gcc/avr/5.4.0/../../../../avr/lib/avrxmega3/libc.a(system_time.o)
 .data          0x0000000000000000        0x0 /Applications/microchip/xc8/v2.10/avr/bin/../lib/gcc/avr/5.4.0/../../../../avr/lib/avrxmega3/libc.a(system_time.o)
 .bss           0x0000000000000000        0x0 /Applications/microchip/xc8/v2.10/avr/bin/../lib/gcc/avr/5.4.0/../../../../avr/lib/avrxmega3/libc.a(system_time.o)
 .text          0x0000000000000000        0x0 /Applications/microchip/xc8/v2.10/avr/bin/../lib/gcc/avr/5.4.0/../../../../avr/lib/avrxmega3/libc.a(utc_offset.o)
 .data          0x0000000000000000        0x0 /Applications/microchip/xc8/v2.10/avr/bin/../lib/gcc/avr/5.4.0/../../../../avr/lib/avrxmega3/libc.a(utc_offset.o)
 .bss           0x0000000000000000        0x0 /Applications/microchip/xc8/v2.10/avr/bin/../lib/gcc/avr/5.4.0/../../../../avr/lib/avrxmega3/libc.a(utc_offset.o)
 .text          0x0000000000000000        0x0 /Applications/microchip/xc8/v2.10/avr/bin/../lib/gcc/avr/5.4.0/../../../../avr/lib/avrxmega3/libc.a(vfprintf_std.o)
 .data          0x0000000000000000        0x0 /Applications/microchip/xc8/v2.10/avr/bin/../lib/gcc/avr/5.4.0/../../../../avr/lib/avrxmega3/libc.a(vfprintf_std.o)
 .bss           0x0000000000000000        0x0 /Applications/microchip/xc8/v2.10/avr/bin/../lib/gcc/avr/5.4.0/../../../../avr/lib/avrxmega3/libc.a(vfprintf_std.o)
 .text          0x0000000000000000        0x0 /Applications/microchip/xc8/v2.10/avr/bin/../lib/gcc/avr/5.4.0/../../../../avr/lib/avrxmega3/libc.a(strnlen_P.o)
 .data          0x0000000000000000        0x0 /Applications/microchip/xc8/v2.10/avr/bin/../lib/gcc/avr/5.4.0/../../../../avr/lib/avrxmega3/libc.a(strnlen_P.o)
 .bss           0x0000000000000000        0x0 /Applications/microchip/xc8/v2.10/avr/bin/../lib/gcc/avr/5.4.0/../../../../avr/lib/avrxmega3/libc.a(strnlen_P.o)
 .text          0x0000000000000000        0x0 /Applications/microchip/xc8/v2.10/avr/bin/../lib/gcc/avr/5.4.0/../../../../avr/lib/avrxmega3/libc.a(strnlen.o)
 .data          0x0000000000000000        0x0 /Applications/microchip/xc8/v2.10/avr/bin/../lib/gcc/avr/5.4.0/../../../../avr/lib/avrxmega3/libc.a(strnlen.o)
 .bss           0x0000000000000000        0x0 /Applications/microchip/xc8/v2.10/avr/bin/../lib/gcc/avr/5.4.0/../../../../avr/lib/avrxmega3/libc.a(strnlen.o)
 .text          0x0000000000000000        0x0 /Applications/microchip/xc8/v2.10/avr/bin/../lib/gcc/avr/5.4.0/../../../../avr/lib/avrxmega3/libc.a(fputc.o)
 .data          0x0000000000000000        0x0 /Applications/microchip/xc8/v2.10/avr/bin/../lib/gcc/avr/5.4.0/../../../../avr/lib/avrxmega3/libc.a(fputc.o)
 .bss           0x0000000000000000        0x0 /Applications/microchip/xc8/v2.10/avr/bin/../lib/gcc/avr/5.4.0/../../../../avr/lib/avrxmega3/libc.a(fputc.o)
 .text          0x0000000000000000        0x0 /Applications/microchip/xc8/v2.10/avr/bin/../lib/gcc/avr/5.4.0/../../../../avr/lib/avrxmega3/libc.a(ultoa_invert.o)
 .data          0x0000000000000000        0x0 /Applications/microchip/xc8/v2.10/avr/bin/../lib/gcc/avr/5.4.0/../../../../avr/lib/avrxmega3/libc.a(ultoa_invert.o)
 .bss           0x0000000000000000        0x0 /Applications/microchip/xc8/v2.10/avr/bin/../lib/gcc/avr/5.4.0/../../../../avr/lib/avrxmega3/libc.a(ultoa_invert.o)
 .text          0x0000000000000000        0x0 /Applications/microchip/xc8/v2.10/avr/bin/../lib/gcc/avr/5.4.0/../../../../avr/lib/avrxmega3/libc.a(asc_store.o)
 .bss           0x0000000000000000        0x0 /Applications/microchip/xc8/v2.10/avr/bin/../lib/gcc/avr/5.4.0/../../../../avr/lib/avrxmega3/libc.a(asc_store.o)
 .data          0x0000000000000000        0x0 /Applications/microchip/xc8/v2.10/avr/bin/../lib/gcc/avr/5.4.0/../../../../avr/lib/avrxmega3/libc.a(asctime_r.o)
 .bss           0x0000000000000000        0x0 /Applications/microchip/xc8/v2.10/avr/bin/../lib/gcc/avr/5.4.0/../../../../avr/lib/avrxmega3/libc.a(asctime_r.o)
 .text          0x0000000000000000        0x0 /Applications/microchip/xc8/v2.10/avr/bin/../lib/gcc/avr/5.4.0/../../../../avr/lib/avrxmega3/libc.a(dst_pointer.o)
 .data          0x0000000000000000        0x0 /Applications/microchip/xc8/v2.10/avr/bin/../lib/gcc/avr/5.4.0/../../../../avr/lib/avrxmega3/libc.a(dst_pointer.o)
 .bss           0x0000000000000000        0x0 /Applications/microchip/xc8/v2.10/avr/bin/../lib/gcc/avr/5.4.0/../../../../avr/lib/avrxmega3/libc.a(dst_pointer.o)
 .data          0x0000000000000000        0x0 /Applications/microchip/xc8/v2.10/avr/bin/../lib/gcc/avr/5.4.0/../../../../avr/lib/avrxmega3/libc.a(gmtime_r.o)
 .bss           0x0000000000000000        0x0 /Applications/microchip/xc8/v2.10/avr/bin/../lib/gcc/avr/5.4.0/../../../../avr/lib/avrxmega3/libc.a(gmtime_r.o)
 .data          0x0000000000000000        0x0 /Applications/microchip/xc8/v2.10/avr/bin/../lib/gcc/avr/5.4.0/../../../../avr/lib/avrxmega3/libc.a(mk_gmtime.o)
 .bss           0x0000000000000000        0x0 /Applications/microchip/xc8/v2.10/avr/bin/../lib/gcc/avr/5.4.0/../../../../avr/lib/avrxmega3/libc.a(mk_gmtime.o)
 .data          0x0000000000000000        0x0 /Applications/microchip/xc8/v2.10/avr/bin/../lib/gcc/avr/5.4.0/../../../../avr/lib/avrxmega3/libc.a(print_lz.o)
 .bss           0x0000000000000000        0x0 /Applications/microchip/xc8/v2.10/avr/bin/../lib/gcc/avr/5.4.0/../../../../avr/lib/avrxmega3/libc.a(print_lz.o)
 .data          0x0000000000000000        0x0 /Applications/microchip/xc8/v2.10/avr/bin/../lib/gcc/avr/5.4.0/../../../../avr/lib/avrxmega3/libc.a(isLeap.o)
 .bss           0x0000000000000000        0x0 /Applications/microchip/xc8/v2.10/avr/bin/../lib/gcc/avr/5.4.0/../../../../avr/lib/avrxmega3/libc.a(isLeap.o)
 .text          0x0000000000000000        0x0 /Applications/microchip/xc8/v2.10/avr/bin/../lib/gcc/avr/5.4.0/avrxmega3/libgcc.a(_mulsi3.o)
 .data          0x0000000000000000        0x0 /Applications/microchip/xc8/v2.10/avr/bin/../lib/gcc/avr/5.4.0/avrxmega3/libgcc.a(_mulsi3.o)
 .bss           0x0000000000000000        0x0 /Applications/microchip/xc8/v2.10/avr/bin/../lib/gcc/avr/5.4.0/avrxmega3/libgcc.a(_mulsi3.o)
 .text.libgcc.div
                0x0000000000000000        0x0 /Applications/microchip/xc8/v2.10/avr/bin/../lib/gcc/avr/5.4.0/avrxmega3/libgcc.a(_mulsi3.o)
 .text.libgcc   0x0000000000000000        0x0 /Applications/microchip/xc8/v2.10/avr/bin/../lib/gcc/avr/5.4.0/avrxmega3/libgcc.a(_mulsi3.o)
 .text.libgcc.prologue
                0x0000000000000000        0x0 /Applications/microchip/xc8/v2.10/avr/bin/../lib/gcc/avr/5.4.0/avrxmega3/libgcc.a(_mulsi3.o)
 .text.libgcc.builtins
                0x0000000000000000        0x0 /Applications/microchip/xc8/v2.10/avr/bin/../lib/gcc/avr/5.4.0/avrxmega3/libgcc.a(_mulsi3.o)
 .text.libgcc.fmul
                0x0000000000000000        0x0 /Applications/microchip/xc8/v2.10/avr/bin/../lib/gcc/avr/5.4.0/avrxmega3/libgcc.a(_mulsi3.o)
 .text.libgcc.fixed
                0x0000000000000000        0x0 /Applications/microchip/xc8/v2.10/avr/bin/../lib/gcc/avr/5.4.0/avrxmega3/libgcc.a(_mulsi3.o)
 .text          0x0000000000000000        0x0 /Applications/microchip/xc8/v2.10/avr/bin/../lib/gcc/avr/5.4.0/avrxmega3/libgcc.a(_divmodsi4.o)
 .data          0x0000000000000000        0x0 /Applications/microchip/xc8/v2.10/avr/bin/../lib/gcc/avr/5.4.0/avrxmega3/libgcc.a(_divmodsi4.o)
 .bss           0x0000000000000000        0x0 /Applications/microchip/xc8/v2.10/avr/bin/../lib/gcc/avr/5.4.0/avrxmega3/libgcc.a(_divmodsi4.o)
 .text.libgcc.mul
                0x0000000000000000        0x0 /Applications/microchip/xc8/v2.10/avr/bin/../lib/gcc/avr/5.4.0/avrxmega3/libgcc.a(_divmodsi4.o)
 .text.libgcc   0x0000000000000000        0x0 /Applications/microchip/xc8/v2.10/avr/bin/../lib/gcc/avr/5.4.0/avrxmega3/libgcc.a(_divmodsi4.o)
 .text.libgcc.prologue
                0x0000000000000000        0x0 /Applications/microchip/xc8/v2.10/avr/bin/../lib/gcc/avr/5.4.0/avrxmega3/libgcc.a(_divmodsi4.o)
 .text.libgcc.builtins
                0x0000000000000000        0x0 /Applications/microchip/xc8/v2.10/avr/bin/../lib/gcc/avr/5.4.0/avrxmega3/libgcc.a(_divmodsi4.o)
 .text.libgcc.fmul
                0x0000000000000000        0x0 /Applications/microchip/xc8/v2.10/avr/bin/../lib/gcc/avr/5.4.0/avrxmega3/libgcc.a(_divmodsi4.o)
 .text.libgcc.fixed
                0x0000000000000000        0x0 /Applications/microchip/xc8/v2.10/avr/bin/../lib/gcc/avr/5.4.0/avrxmega3/libgcc.a(_divmodsi4.o)
 .text          0x0000000000000000        0x0 /Applications/microchip/xc8/v2.10/avr/bin/../lib/gcc/avr/5.4.0/avrxmega3/libgcc.a(_negsi2.o)
 .data          0x0000000000000000        0x0 /Applications/microchip/xc8/v2.10/avr/bin/../lib/gcc/avr/5.4.0/avrxmega3/libgcc.a(_negsi2.o)
 .bss           0x0000000000000000        0x0 /Applications/microchip/xc8/v2.10/avr/bin/../lib/gcc/avr/5.4.0/avrxmega3/libgcc.a(_negsi2.o)
 .text.libgcc.mul
                0x0000000000000000        0x0 /Applications/microchip/xc8/v2.10/avr/bin/../lib/gcc/avr/5.4.0/avrxmega3/libgcc.a(_negsi2.o)
 .text.libgcc   0x0000000000000000        0x0 /Applications/microchip/xc8/v2.10/avr/bin/../lib/gcc/avr/5.4.0/avrxmega3/libgcc.a(_negsi2.o)
 .text.libgcc.prologue
                0x0000000000000000        0x0 /Applications/microchip/xc8/v2.10/avr/bin/../lib/gcc/avr/5.4.0/avrxmega3/libgcc.a(_negsi2.o)
 .text.libgcc.builtins
                0x0000000000000000        0x0 /Applications/microchip/xc8/v2.10/avr/bin/../lib/gcc/avr/5.4.0/avrxmega3/libgcc.a(_negsi2.o)
 .text.libgcc.fmul
                0x0000000000000000        0x0 /Applications/microchip/xc8/v2.10/avr/bin/../lib/gcc/avr/5.4.0/avrxmega3/libgcc.a(_negsi2.o)
 .text.libgcc.fixed
                0x0000000000000000        0x0 /Applications/microchip/xc8/v2.10/avr/bin/../lib/gcc/avr/5.4.0/avrxmega3/libgcc.a(_negsi2.o)
 .text          0x0000000000000000        0x0 /Applications/microchip/xc8/v2.10/avr/bin/../lib/gcc/avr/5.4.0/avrxmega3/libgcc.a(_prologue.o)
 .data          0x0000000000000000        0x0 /Applications/microchip/xc8/v2.10/avr/bin/../lib/gcc/avr/5.4.0/avrxmega3/libgcc.a(_prologue.o)
 .bss           0x0000000000000000        0x0 /Applications/microchip/xc8/v2.10/avr/bin/../lib/gcc/avr/5.4.0/avrxmega3/libgcc.a(_prologue.o)
 .text.libgcc.mul
                0x0000000000000000        0x0 /Applications/microchip/xc8/v2.10/avr/bin/../lib/gcc/avr/5.4.0/avrxmega3/libgcc.a(_prologue.o)
 .text.libgcc.div
                0x0000000000000000        0x0 /Applications/microchip/xc8/v2.10/avr/bin/../lib/gcc/avr/5.4.0/avrxmega3/libgcc.a(_prologue.o)
 .text.libgcc   0x0000000000000000        0x0 /Applications/microchip/xc8/v2.10/avr/bin/../lib/gcc/avr/5.4.0/avrxmega3/libgcc.a(_prologue.o)
 .text.libgcc.builtins
                0x0000000000000000        0x0 /Applications/microchip/xc8/v2.10/avr/bin/../lib/gcc/avr/5.4.0/avrxmega3/libgcc.a(_prologue.o)
 .text.libgcc.fmul
                0x0000000000000000        0x0 /Applications/microchip/xc8/v2.10/avr/bin/../lib/gcc/avr/5.4.0/avrxmega3/libgcc.a(_prologue.o)
 .text.libgcc.fixed
                0x0000000000000000        0x0 /Applications/microchip/xc8/v2.10/avr/bin/../lib/gcc/avr/5.4.0/avrxmega3/libgcc.a(_prologue.o)
 .text          0x0000000000000000        0x0 /Applications/microchip/xc8/v2.10/avr/bin/../lib/gcc/avr/5.4.0/avrxmega3/libgcc.a(_epilogue.o)
 .data          0x0000000000000000        0x0 /Applications/microchip/xc8/v2.10/avr/bin/../lib/gcc/avr/5.4.0/avrxmega3/libgcc.a(_epilogue.o)
 .bss           0x0000000000000000        0x0 /Applications/microchip/xc8/v2.10/avr/bin/../lib/gcc/avr/5.4.0/avrxmega3/libgcc.a(_epilogue.o)
 .text.libgcc.mul
                0x0000000000000000        0x0 /Applications/microchip/xc8/v2.10/avr/bin/../lib/gcc/avr/5.4.0/avrxmega3/libgcc.a(_epilogue.o)
 .text.libgcc.div
                0x0000000000000000        0x0 /Applications/microchip/xc8/v2.10/avr/bin/../lib/gcc/avr/5.4.0/avrxmega3/libgcc.a(_epilogue.o)
 .text.libgcc   0x0000000000000000        0x0 /Applications/microchip/xc8/v2.10/avr/bin/../lib/gcc/avr/5.4.0/avrxmega3/libgcc.a(_epilogue.o)
 .text.libgcc.builtins
                0x0000000000000000        0x0 /Applications/microchip/xc8/v2.10/avr/bin/../lib/gcc/avr/5.4.0/avrxmega3/libgcc.a(_epilogue.o)
 .text.libgcc.fmul
                0x0000000000000000        0x0 /Applications/microchip/xc8/v2.10/avr/bin/../lib/gcc/avr/5.4.0/avrxmega3/libgcc.a(_epilogue.o)
 .text.libgcc.fixed
                0x0000000000000000        0x0 /Applications/microchip/xc8/v2.10/avr/bin/../lib/gcc/avr/5.4.0/avrxmega3/libgcc.a(_epilogue.o)

Memory Configuration

Name             Origin             Length             Attributes
text             0x0000000000000000 0x000000000000c000 xr
data             0x0000000000802800 0x0000000000001800 rw !x
eeprom           0x0000000000810000 0x0000000000000100 rw !x
fuse             0x0000000000820000 0x0000000000000009 rw !x
lock             0x0000000000830000 0x0000000000000400 rw !x
signature        0x0000000000840000 0x0000000000000400 rw !x
user_signatures  0x0000000000850000 0x0000000000000400 rw !x
*default*        0x0000000000000000 0xffffffffffffffff

Linker script and memory map

Address of section .data set to 0x802800
                0x0000000000004000                __RODATA_PM_OFFSET__ = 0x4000
LOAD /Applications/microchip/mplabx/v5.30/packs/Microchip/ATmega_DFP/2.0.12/gcc/dev/atmega4808/avrxmega3/crtatmega4808.o
                0x0000000000000001                __MPLAB_BUILD = 0x1
LOAD build/AWS_IOT/production/mcc_generated_files/cli/cli.o
LOAD build/AWS_IOT/production/mcc_generated_files/cloud/crypto_client/crypto_client.o
LOAD build/AWS_IOT/production/mcc_generated_files/cloud/cloud_service.o
LOAD build/AWS_IOT/production/mcc_generated_files/cloud/wifi_service.o
LOAD build/AWS_IOT/production/mcc_generated_files/cloud/mqtt_service.o
LOAD build/AWS_IOT/production/mcc_generated_files/cloud/aws_cloud_service.o
LOAD build/AWS_IOT/production/mcc_generated_files/credentials_storage/credentials_storage.o
LOAD build/AWS_IOT/production/mcc_generated_files/CryptoAuthenticationLibrary/atcacert/atcacert_client.o
LOAD build/AWS_IOT/production/mcc_generated_files/CryptoAuthenticationLibrary/atcacert/atcacert_date.o
LOAD build/AWS_IOT/production/mcc_generated_files/CryptoAuthenticationLibrary/atcacert/atcacert_def.o
LOAD build/AWS_IOT/production/mcc_generated_files/CryptoAuthenticationLibrary/atcacert/atcacert_der.o
LOAD build/AWS_IOT/production/mcc_generated_files/CryptoAuthenticationLibrary/atcacert/atcacert_host_hw.o
LOAD build/AWS_IOT/production/mcc_generated_files/CryptoAuthenticationLibrary/atcacert/atcacert_host_sw.o
LOAD build/AWS_IOT/production/mcc_generated_files/CryptoAuthenticationLibrary/atcacert/atcacert_pem.o
LOAD build/AWS_IOT/production/mcc_generated_files/CryptoAuthenticationLibrary/basic/atca_basic.o
LOAD build/AWS_IOT/production/mcc_generated_files/CryptoAuthenticationLibrary/basic/atca_basic_checkmac.o
LOAD build/AWS_IOT/production/mcc_generated_files/CryptoAuthenticationLibrary/basic/atca_basic_counter.o
LOAD build/AWS_IOT/production/mcc_generated_files/CryptoAuthenticationLibrary/basic/atca_basic_derivekey.o
LOAD build/AWS_IOT/production/mcc_generated_files/CryptoAuthenticationLibrary/basic/atca_basic_ecdh.o
LOAD build/AWS_IOT/production/mcc_generated_files/CryptoAuthenticationLibrary/basic/atca_basic_gendig.o
LOAD build/AWS_IOT/production/mcc_generated_files/CryptoAuthenticationLibrary/basic/atca_basic_genkey.o
LOAD build/AWS_IOT/production/mcc_generated_files/CryptoAuthenticationLibrary/basic/atca_basic_hmac.o
LOAD build/AWS_IOT/production/mcc_generated_files/CryptoAuthenticationLibrary/basic/atca_basic_info.o
LOAD build/AWS_IOT/production/mcc_generated_files/CryptoAuthenticationLibrary/basic/atca_basic_kdf.o
LOAD build/AWS_IOT/production/mcc_generated_files/CryptoAuthenticationLibrary/basic/atca_basic_lock.o
LOAD build/AWS_IOT/production/mcc_generated_files/CryptoAuthenticationLibrary/basic/atca_basic_mac.o
LOAD build/AWS_IOT/production/mcc_generated_files/CryptoAuthenticationLibrary/basic/atca_basic_nonce.o
LOAD build/AWS_IOT/production/mcc_generated_files/CryptoAuthenticationLibrary/basic/atca_basic_privwrite.o
LOAD build/AWS_IOT/production/mcc_generated_files/CryptoAuthenticationLibrary/basic/atca_basic_random.o
LOAD build/AWS_IOT/production/mcc_generated_files/CryptoAuthenticationLibrary/basic/atca_basic_read.o
LOAD build/AWS_IOT/production/mcc_generated_files/CryptoAuthenticationLibrary/basic/atca_basic_secureboot.o
LOAD build/AWS_IOT/production/mcc_generated_files/CryptoAuthenticationLibrary/basic/atca_basic_selftest.o
LOAD build/AWS_IOT/production/mcc_generated_files/CryptoAuthenticationLibrary/basic/atca_basic_sha.o
LOAD build/AWS_IOT/production/mcc_generated_files/CryptoAuthenticationLibrary/basic/atca_basic_sign.o
LOAD build/AWS_IOT/production/mcc_generated_files/CryptoAuthenticationLibrary/basic/atca_basic_updateextra.o
LOAD build/AWS_IOT/production/mcc_generated_files/CryptoAuthenticationLibrary/basic/atca_basic_verify.o
LOAD build/AWS_IOT/production/mcc_generated_files/CryptoAuthenticationLibrary/basic/atca_basic_write.o
LOAD build/AWS_IOT/production/mcc_generated_files/CryptoAuthenticationLibrary/basic/atca_helpers.o
LOAD build/AWS_IOT/production/mcc_generated_files/CryptoAuthenticationLibrary/crypto/hashes/sha1_routines.o
LOAD build/AWS_IOT/production/mcc_generated_files/CryptoAuthenticationLibrary/crypto/hashes/sha2_routines.o
LOAD build/AWS_IOT/production/mcc_generated_files/CryptoAuthenticationLibrary/crypto/atca_crypto_sw_ecdsa.o
LOAD build/AWS_IOT/production/mcc_generated_files/CryptoAuthenticationLibrary/crypto/atca_crypto_sw_rand.o
LOAD build/AWS_IOT/production/mcc_generated_files/CryptoAuthenticationLibrary/crypto/atca_crypto_sw_sha1.o
LOAD build/AWS_IOT/production/mcc_generated_files/CryptoAuthenticationLibrary/crypto/atca_crypto_sw_sha2.o
LOAD build/AWS_IOT/production/mcc_generated_files/CryptoAuthenticationLibrary/hal/atca_hal.o
LOAD build/AWS_IOT/production/mcc_generated_files/CryptoAuthenticationLibrary/hal/atca_i2c_hal.o
LOAD build/AWS_IOT/production/mcc_generated_files/CryptoAuthenticationLibrary/hal/hal_i2c_timer.o
LOAD build/AWS_IOT/production/mcc_generated_files/CryptoAuthenticationLibrary/host/atca_host.o
LOAD build/AWS_IOT/production/mcc_generated_files/CryptoAuthenticationLibrary/jwt/atca_jwt.o
LOAD build/AWS_IOT/production/mcc_generated_files/CryptoAuthenticationLibrary/atca_cfgs.o
LOAD build/AWS_IOT/production/mcc_generated_files/CryptoAuthenticationLibrary/atca_command.o
LOAD build/AWS_IOT/production/mcc_generated_files/CryptoAuthenticationLibrary/atca_device.o
LOAD build/AWS_IOT/production/mcc_generated_files/CryptoAuthenticationLibrary/atca_execution.o
LOAD build/AWS_IOT/production/mcc_generated_files/CryptoAuthenticationLibrary/atca_iface.o
LOAD build/AWS_IOT/production/mcc_generated_files/drivers/spi_master.o
LOAD build/AWS_IOT/production/mcc_generated_files/drivers/timeout.o
LOAD build/AWS_IOT/production/mcc_generated_files/drivers/i2c_simple_master.o
LOAD build/AWS_IOT/production/mcc_generated_files/mqtt/mqtt_comm_bsd/mqtt_comm_layer.o
LOAD build/AWS_IOT/production/mcc_generated_files/mqtt/mqtt_core/mqtt_core.o
LOAD build/AWS_IOT/production/mcc_generated_files/mqtt/mqtt_exchange_buffer/mqtt_exchange_buffer.o
LOAD build/AWS_IOT/production/mcc_generated_files/mqtt/mqtt_packetTransfer_interface.o
LOAD build/AWS_IOT/production/mcc_generated_files/mqtt/mqtt_winc_adapter.o
LOAD build/AWS_IOT/production/mcc_generated_files/src/pin_manager.o
LOAD build/AWS_IOT/production/mcc_generated_files/src/cpuint.o
LOAD build/AWS_IOT/production/mcc_generated_files/src/spi0.o
LOAD build/AWS_IOT/production/mcc_generated_files/src/protected_io.o
LOAD build/AWS_IOT/production/mcc_generated_files/src/rtc.o
LOAD build/AWS_IOT/production/mcc_generated_files/src/twi0_master.o
LOAD build/AWS_IOT/production/mcc_generated_files/src/adc0.o
LOAD build/AWS_IOT/production/mcc_generated_files/src/usart2.o
LOAD build/AWS_IOT/production/mcc_generated_files/winc/driver/winc_spi.o
LOAD build/AWS_IOT/production/mcc_generated_files/winc/driver/winc_adapter.o
LOAD build/AWS_IOT/production/mcc_generated_files/winc/driver/winc_hif.o
LOAD build/AWS_IOT/production/mcc_generated_files/winc/driver/winc_asic.o
LOAD build/AWS_IOT/production/mcc_generated_files/winc/driver/winc_drv.o
LOAD build/AWS_IOT/production/mcc_generated_files/winc/m2m/m2m_ssl.o
LOAD build/AWS_IOT/production/mcc_generated_files/winc/m2m/m2m_wifi.o
LOAD build/AWS_IOT/production/mcc_generated_files/winc/m2m/m2m_periph.o
LOAD build/AWS_IOT/production/mcc_generated_files/winc/m2m/m2m_ota.o
LOAD build/AWS_IOT/production/mcc_generated_files/winc/m2m/m2m_fwinfo.o
LOAD build/AWS_IOT/production/mcc_generated_files/winc/m2m/m2m_crypto.o
LOAD build/AWS_IOT/production/mcc_generated_files/winc/socket/socket.o
LOAD build/AWS_IOT/production/mcc_generated_files/winc/spi_flash/flexible_flash.o
LOAD build/AWS_IOT/production/mcc_generated_files/winc/spi_flash/spi_flash.o
LOAD build/AWS_IOT/production/mcc_generated_files/mcc.o
LOAD build/AWS_IOT/production/mcc_generated_files/delay.o
LOAD build/AWS_IOT/production/mcc_generated_files/device_config.o
LOAD build/AWS_IOT/production/mcc_generated_files/application_manager.o
LOAD build/AWS_IOT/production/mcc_generated_files/debug_print.o
LOAD build/AWS_IOT/production/mcc_generated_files/led.o
LOAD build/AWS_IOT/production/mcc_generated_files/sensors_handling.o
LOAD build/AWS_IOT/production/mcc_generated_files/time_service.o
LOAD build/AWS_IOT/production/mcc_generated_files/CryptoAuthenticationLibrary/CryptoAuth_init.o
LOAD build/AWS_IOT/production/main.o
START GROUP
LOAD /Applications/microchip/xc8/v2.10/avr/bin/../lib/gcc/avr/5.4.0/../../../../avr/lib/avrxmega3/libm.a
END GROUP
START GROUP
LOAD /Applications/microchip/xc8/v2.10/avr/bin/../lib/gcc/avr/5.4.0/avrxmega3/libgcc.a
LOAD /Applications/microchip/xc8/v2.10/avr/bin/../lib/gcc/avr/5.4.0/../../../../avr/lib/avrxmega3/libm.a
LOAD /Applications/microchip/xc8/v2.10/avr/bin/../lib/gcc/avr/5.4.0/../../../../avr/lib/avrxmega3/libc.a
LOAD /Applications/microchip/mplabx/v5.30/packs/Microchip/ATmega_DFP/2.0.12/gcc/dev/atmega4808/avrxmega3/libatmega4808.a
END GROUP
                [0x0000000000000000]                __TEXT_REGION_ORIGIN__ = DEFINED (__TEXT_REGION_ORIGIN__)?__TEXT_REGION_ORIGIN__:0x0
                [0x0000000000802800]                __DATA_REGION_ORIGIN__ = DEFINED (__DATA_REGION_ORIGIN__)?__DATA_REGION_ORIGIN__:0x802000
                [0x000000000000c000]                __TEXT_REGION_LENGTH__ = DEFINED (__TEXT_REGION_LENGTH__)?__TEXT_REGION_LENGTH__:0x100000
                [0x0000000000001800]                __DATA_REGION_LENGTH__ = DEFINED (__DATA_REGION_LENGTH__)?__DATA_REGION_LENGTH__:0xffa0
                [0x0000000000000100]                __EEPROM_REGION_LENGTH__ = DEFINED (__EEPROM_REGION_LENGTH__)?__EEPROM_REGION_LENGTH__:0x10000
                [0x0000000000000009]                __FUSE_REGION_LENGTH__ = DEFINED (__FUSE_REGION_LENGTH__)?__FUSE_REGION_LENGTH__:0x400
                0x0000000000000400                __LOCK_REGION_LENGTH__ = DEFINED (__LOCK_REGION_LENGTH__)?__LOCK_REGION_LENGTH__:0x400
                0x0000000000000400                __SIGNATURE_REGION_LENGTH__ = DEFINED (__SIGNATURE_REGION_LENGTH__)?__SIGNATURE_REGION_LENGTH__:0x400
                0x0000000000000400                __USER_SIGNATURE_REGION_LENGTH__ = DEFINED (__USER_SIGNATURE_REGION_LENGTH__)?__USER_SIGNATURE_REGION_LENGTH__:0x400
                0x0000000000008000                __RODATA_PM_OFFSET__ = DEFINED (__RODATA_PM_OFFSET__)?__RODATA_PM_OFFSET__:0x8000

.hash
 *(.hash)

.dynsym
 *(.dynsym)

.dynstr
 *(.dynstr)

.gnu.version
 *(.gnu.version)

.gnu.version_d
 *(.gnu.version_d)

.gnu.version_r
 *(.gnu.version_r)

.rel.init
 *(.rel.init)

.rela.init
 *(.rela.init)

.rel.text
 *(.rel.text)
 *(.rel.text.*)
 *(.rel.gnu.linkonce.t*)

.rela.text
 *(.rela.text)
 *(.rela.text.*)
 *(.rela.gnu.linkonce.t*)

.rel.fini
 *(.rel.fini)

.rela.fini
 *(.rela.fini)

.rel.rodata
 *(.rel.rodata)
 *(.rel.rodata.*)
 *(.rel.gnu.linkonce.r*)

.rela.rodata
 *(.rela.rodata)
 *(.rela.rodata.*)
 *(.rela.gnu.linkonce.r*)

.rel.data
 *(.rel.data)
 *(.rel.data.*)
 *(.rel.gnu.linkonce.d*)

.rela.data
 *(.rela.data)
 *(.rela.data.*)
 *(.rela.gnu.linkonce.d*)

.rel.ctors
 *(.rel.ctors)

.rela.ctors
 *(.rela.ctors)

.rel.dtors
 *(.rel.dtors)

.rela.dtors
 *(.rela.dtors)

.rel.got
 *(.rel.got)

.rela.got
 *(.rela.got)

.rel.bss
 *(.rel.bss)

.rela.bss
 *(.rela.bss)

.rel.plt
 *(.rel.plt)

.rela.plt
 *(.rela.plt)

.text           0x0000000000000000      0x45c
 *(.vectors)
 .vectors       0x0000000000000000       0x90 /Applications/microchip/mplabx/v5.30/packs/Microchip/ATmega_DFP/2.0.12/gcc/dev/atmega4808/avrxmega3/crtatmega4808.o
                0x0000000000000000                __vectors
                0x0000000000000000                __vector_default
 *(.vectors)
 *(.progmem.gcc*)
 .progmem.gcc_sw_table.LED_service
                0x0000000000000090       0x40 build/AWS_IOT/production/mcc_generated_files/led.o
 *(.dinit)
 .dinit         0x00000000000000d0      0x337 data_init
                0x0000000000000408                . = ALIGN (0x2)
 *fill*         0x0000000000000407        0x1 
                0x0000000000000408                __trampolines_start = .
 *(.trampolines)
 .trampolines   0x0000000000000408        0x0 linker stubs
 *(.trampolines*)
                0x0000000000000408                __trampolines_end = .
 *libprintf_flt.a:*(.progmem.data)
 *libc.a:*(.progmem.data)
                0x0000000000000408                . = ALIGN (0x2)
 *(.jumptables)
 *(.jumptables*)
 *(.lowtext)
 *(.lowtext*)
                0x0000000000000408                __ctors_start = .
 *(.ctors)
                0x0000000000000408                __ctors_end = .
                0x0000000000000408                __dtors_start = .
 *(.dtors)
                0x0000000000000408                __dtors_end = .
 SORT(*)(.ctors)
 SORT(*)(.dtors)
 *(.init0)
 .init0         0x0000000000000408        0x0 /Applications/microchip/mplabx/v5.30/packs/Microchip/ATmega_DFP/2.0.12/gcc/dev/atmega4808/avrxmega3/crtatmega4808.o
                0x0000000000000408                __init
 *(.init0)
 *(.init1)
 *(.init1)
 *(.init2)
 .init2         0x0000000000000408        0xc /Applications/microchip/mplabx/v5.30/packs/Microchip/ATmega_DFP/2.0.12/gcc/dev/atmega4808/avrxmega3/crtatmega4808.o
 *(.init2)
 *(.init3)
 *(.init3)
 *(.init4)
 .init4         0x0000000000000414       0x3c /Applications/microchip/xc8/v2.10/avr/bin/../lib/gcc/avr/5.4.0/avrxmega3/libgcc.a(_copy_data.o)
                0x0000000000000414                __do_copy_data
                0x0000000000000442                __do_clear_bss
 *(.init4)
 *(.init5)
 *(.init5)
 *(.init6)
 *(.init6)
 *(.init7)
 *(.init7)
 *(.init8)
 *(.init8)
 *(.init9)
 .init9         0x0000000000000450        0x8 /Applications/microchip/mplabx/v5.30/packs/Microchip/ATmega_DFP/2.0.12/gcc/dev/atmega4808/avrxmega3/crtatmega4808.o
 *(.init9)
                0x0000000000000458                . = ALIGN (0x2)
 *(.fini9)
 .fini9         0x0000000000000458        0x0 /Applications/microchip/xc8/v2.10/avr/bin/../lib/gcc/avr/5.4.0/avrxmega3/libgcc.a(_exit.o)
                0x0000000000000458                exit
                0x0000000000000458                _exit
 *(.fini9)
 *(.fini8)
 *(.fini8)
 *(.fini7)
 *(.fini7)
 *(.fini6)
 *(.fini6)
 *(.fini5)
 *(.fini5)
 *(.fini4)
 *(.fini4)
 *(.fini3)
 *(.fini3)
 *(.fini2)
 *(.fini2)
 *(.fini1)
 *(.fini1)
 *(.fini0)
 .fini0         0x0000000000000458        0x4 /Applications/microchip/xc8/v2.10/avr/bin/../lib/gcc/avr/5.4.0/avrxmega3/libgcc.a(_exit.o)
 *(.fini0)
                0x000000000000045c                _etext = .

.rodata         0x000000000080445c      0xe52 load address 0x000000000000045c
 *(.rodata)
 .rodata        0x000000000080445c      0x203 build/AWS_IOT/production/mcc_generated_files/cli/cli.o
 .rodata        0x000000000080465f       0xd3 build/AWS_IOT/production/mcc_generated_files/cloud/crypto_client/crypto_client.o
 .rodata        0x0000000000804732      0x2f3 build/AWS_IOT/production/mcc_generated_files/cloud/cloud_service.o
 .rodata        0x0000000000804a25      0x2f7 build/AWS_IOT/production/mcc_generated_files/cloud/wifi_service.o
 .rodata        0x0000000000804d1c       0x4d build/AWS_IOT/production/mcc_generated_files/cloud/mqtt_service.o
 .rodata        0x0000000000804d69      0x104 build/AWS_IOT/production/mcc_generated_files/cloud/aws_cloud_service.o
 .rodata        0x0000000000804e6d      0x1c2 build/AWS_IOT/production/mcc_generated_files/application_manager.o
 .rodata        0x000000000080502f       0xbd build/AWS_IOT/production/mcc_generated_files/debug_print.o
 *(.rodata*)
 .rodata.commands
                0x00000000008050ec       0x20 build/AWS_IOT/production/mcc_generated_files/cli/cli.o
                0x00000000008050ec                commands
 .rodata.device_execution_time_608_m2
                0x000000000080510c       0x42 build/AWS_IOT/production/mcc_generated_files/CryptoAuthenticationLibrary/atca_execution.o
 .rodata.device_execution_time_608_m1
                0x000000000080514e       0x42 build/AWS_IOT/production/mcc_generated_files/CryptoAuthenticationLibrary/atca_execution.o
 .rodata.device_execution_time_608_m0
                0x0000000000805190       0x42 build/AWS_IOT/production/mcc_generated_files/CryptoAuthenticationLibrary/atca_execution.o
 .rodata.device_execution_time_508
                0x00000000008051d2       0x3c build/AWS_IOT/production/mcc_generated_files/CryptoAuthenticationLibrary/atca_execution.o
 .rodata.device_execution_time_108
                0x000000000080520e       0x39 build/AWS_IOT/production/mcc_generated_files/CryptoAuthenticationLibrary/atca_execution.o
 .rodata.device_execution_time_204
                0x0000000000805247       0x2a build/AWS_IOT/production/mcc_generated_files/CryptoAuthenticationLibrary/atca_execution.o
 .rodata.spiMaster
                0x0000000000805271       0x14 build/AWS_IOT/production/mcc_generated_files/drivers/spi_master.o
                0x0000000000805271                spiMaster
 .rodata.u8CmdBuf.3402
                0x0000000000805285        0x9 build/AWS_IOT/production/mcc_generated_files/winc/driver/winc_spi.o
 .rodata.gHifCallbacks
                0x000000000080528e        0xe build/AWS_IOT/production/mcc_generated_files/winc/driver/winc_hif.o
 .rodata.level_strings
                0x000000000080529c        0x8 build/AWS_IOT/production/mcc_generated_files/debug_print.o
 .rodata.severity_strings
                0x00000000008052a4        0xa build/AWS_IOT/production/mcc_generated_files/debug_print.o
 *(.gnu.linkonce.r*)

.data           0x0000000000802800        0x0 load address 0x00000000000012ae
                [!provide]                        PROVIDE (__data_start, .)
 *(.gnu.linkonce.d*)
                0x0000000000802800                . = ALIGN (0x2)
                0x0000000000802800                _edata = .
                [!provide]                        PROVIDE (__data_end, .)

.bss            0x0000000000802800      0x15c
                [!provide]                        PROVIDE (__bss_start, .)
 *(COMMON)
 COMMON         0x0000000000802800        0x9 build/AWS_IOT/production/mcc_generated_files/cloud/crypto_client/crypto_client.o
                0x0000000000802800                g_serial_number
 COMMON         0x0000000000802809       0x10 build/AWS_IOT/production/mcc_generated_files/cloud/cloud_service.o
                0x0000000000802809                cloudStatus
                0x000000000080280a                mqttBrokerIP
                0x000000000080280e                shared_networking_params
                0x000000000080280f                cloud_packetReceiveCallBackTable
 COMMON         0x0000000000802819       0x16 build/AWS_IOT/production/mcc_generated_files/cloud/wifi_service.o
                0x0000000000802819                prevNTPServerName
                0x000000000080282d                callback_funcPtr
 COMMON         0x000000000080282f       0x29 build/AWS_IOT/production/mcc_generated_files/cloud/mqtt_service.o
                0x000000000080282f                cid
 COMMON         0x0000000000802858        0x4 build/AWS_IOT/production/mcc_generated_files/cloud/aws_cloud_service.o
                0x0000000000802858                imqtt_publishReceiveCallBackTable
 COMMON         0x000000000080285c       0x54 build/AWS_IOT/production/mcc_generated_files/credentials_storage/credentials_storage.o
                0x000000000080285c                ssid
                0x000000000080287b                pass
                0x000000000080289a                ntpServerName
                0x00000000008028ae                authType
 COMMON         0x00000000008028b0       0x1b build/AWS_IOT/production/mcc_generated_files/CryptoAuthenticationLibrary/basic/atca_basic.o
                0x00000000008028b0                g_atcab_device
                0x00000000008028b4                g_atcab_iface
                0x00000000008028c7                g_atcab_command
 COMMON         0x00000000008028cb        0x2 build/AWS_IOT/production/mcc_generated_files/mqtt/mqtt_packetTransfer_interface.o
                0x00000000008028cb                publishRecvCallback
 COMMON         0x00000000008028cd       0x65 build/AWS_IOT/production/mcc_generated_files/application_manager.o
                0x00000000008028cd                mqttSubscribeTopic
                0x0000000000802931                retValCryptoClientSerialNumber
 COMMON         0x0000000000802932        0x6 /Applications/microchip/xc8/v2.10/avr/bin/../lib/gcc/avr/5.4.0/../../../../avr/lib/avrxmega3/libc.a(iob.o)
                0x0000000000802932                __iob
 COMMON         0x0000000000802938        0x4 /Applications/microchip/xc8/v2.10/avr/bin/../lib/gcc/avr/5.4.0/../../../../avr/lib/avrxmega3/libc.a(system_time.o)
                0x0000000000802938                __system_time
 COMMON         0x000000000080293c        0x4 /Applications/microchip/xc8/v2.10/avr/bin/../lib/gcc/avr/5.4.0/../../../../avr/lib/avrxmega3/libc.a(utc_offset.o)
                0x000000000080293c                __utc_offset
 COMMON         0x0000000000802940       0x1a /Applications/microchip/xc8/v2.10/avr/bin/../lib/gcc/avr/5.4.0/../../../../avr/lib/avrxmega3/libc.a(asc_store.o)
                0x0000000000802940                __store
 COMMON         0x000000000080295a        0x2 /Applications/microchip/xc8/v2.10/avr/bin/../lib/gcc/avr/5.4.0/../../../../avr/lib/avrxmega3/libc.a(dst_pointer.o)
                0x000000000080295a                __dst_ptr
                [!provide]                        PROVIDE (__bss_end, .)
                0x00000000000012ae                __data_load_start = LOADADDR (.data)
                0x00000000000012ae                __data_load_end = (__data_load_start + SIZEOF (.data))

.noinit         0x000000000080295c        0x0
                [!provide]                        PROVIDE (__noinit_start, .)
 *(.noinit*)
                [!provide]                        PROVIDE (__noinit_end, .)
                0x000000000080295c                _end = .

.eeprom         0x0000000000810000        0x0
 *(.eeprom*)
                0x0000000000810000                __eeprom_end = .

.fuse           0x0000000000820000        0x9
 *(.fuse)
 .fuse          0x0000000000820000        0x9 build/AWS_IOT/production/mcc_generated_files/device_config.o
                0x0000000000820000                __fuse
 *(.lfuse)
 *(.hfuse)
 *(.efuse)

.lock
 *(.lock*)

.signature
 *(.signature*)

.user_signatures
 *(.user_signatures*)

.stab
 *(.stab)

.stabstr
 *(.stabstr)

.stab.excl
 *(.stab.excl)

.stab.exclstr
 *(.stab.exclstr)

.stab.index
 *(.stab.index)

.stab.indexstr
 *(.stab.indexstr)

.comment        0x0000000000000000       0x5b
 *(.comment)
 .comment       0x0000000000000000       0x2f build/AWS_IOT/production/mcc_generated_files/cli/cli.o
                                         0x30 (size before relaxing)
 .comment       0x000000000000002f       0x30 build/AWS_IOT/production/mcc_generated_files/cloud/crypto_client/crypto_client.o
 .comment       0x000000000000002f       0x30 build/AWS_IOT/production/mcc_generated_files/cloud/cloud_service.o
 .comment       0x000000000000002f       0x30 build/AWS_IOT/production/mcc_generated_files/cloud/wifi_service.o
 .comment       0x000000000000002f       0x30 build/AWS_IOT/production/mcc_generated_files/cloud/mqtt_service.o
 .comment       0x000000000000002f       0x30 build/AWS_IOT/production/mcc_generated_files/cloud/aws_cloud_service.o
 .comment       0x000000000000002f       0x30 build/AWS_IOT/production/mcc_generated_files/credentials_storage/credentials_storage.o
 .comment       0x000000000000002f       0x30 build/AWS_IOT/production/mcc_generated_files/CryptoAuthenticationLibrary/basic/atca_basic.o
 .comment       0x000000000000002f       0x30 build/AWS_IOT/production/mcc_generated_files/CryptoAuthenticationLibrary/basic/atca_basic_ecdh.o
 .comment       0x000000000000002f       0x30 build/AWS_IOT/production/mcc_generated_files/CryptoAuthenticationLibrary/basic/atca_basic_genkey.o
 .comment       0x000000000000002f       0x30 build/AWS_IOT/production/mcc_generated_files/CryptoAuthenticationLibrary/basic/atca_basic_lock.o
 .comment       0x000000000000002f       0x30 build/AWS_IOT/production/mcc_generated_files/CryptoAuthenticationLibrary/basic/atca_basic_nonce.o
 .comment       0x000000000000002f       0x30 build/AWS_IOT/production/mcc_generated_files/CryptoAuthenticationLibrary/basic/atca_basic_random.o
 .comment       0x000000000000002f       0x30 build/AWS_IOT/production/mcc_generated_files/CryptoAuthenticationLibrary/basic/atca_basic_read.o
 .comment       0x000000000000002f       0x30 build/AWS_IOT/production/mcc_generated_files/CryptoAuthenticationLibrary/basic/atca_basic_sign.o
 .comment       0x000000000000002f       0x30 build/AWS_IOT/production/mcc_generated_files/CryptoAuthenticationLibrary/basic/atca_basic_verify.o
 .comment       0x000000000000002f       0x30 build/AWS_IOT/production/mcc_generated_files/CryptoAuthenticationLibrary/hal/atca_hal.o
 .comment       0x000000000000002f       0x30 build/AWS_IOT/production/mcc_generated_files/CryptoAuthenticationLibrary/hal/atca_i2c_hal.o
 .comment       0x000000000000002f       0x30 build/AWS_IOT/production/mcc_generated_files/CryptoAuthenticationLibrary/hal/hal_i2c_timer.o
 .comment       0x000000000000002f       0x30 build/AWS_IOT/production/mcc_generated_files/CryptoAuthenticationLibrary/atca_command.o
 .comment       0x000000000000002f       0x30 build/AWS_IOT/production/mcc_generated_files/CryptoAuthenticationLibrary/atca_device.o
 .comment       0x000000000000002f       0x30 build/AWS_IOT/production/mcc_generated_files/CryptoAuthenticationLibrary/atca_execution.o
 .comment       0x000000000000002f       0x30 build/AWS_IOT/production/mcc_generated_files/CryptoAuthenticationLibrary/atca_iface.o
 .comment       0x000000000000002f       0x30 build/AWS_IOT/production/mcc_generated_files/drivers/spi_master.o
 .comment       0x000000000000002f       0x30 build/AWS_IOT/production/mcc_generated_files/drivers/timeout.o
 .comment       0x000000000000002f       0x30 build/AWS_IOT/production/mcc_generated_files/drivers/i2c_simple_master.o
 .comment       0x000000000000002f       0x30 build/AWS_IOT/production/mcc_generated_files/mqtt/mqtt_comm_bsd/mqtt_comm_layer.o
 .comment       0x000000000000002f       0x30 build/AWS_IOT/production/mcc_generated_files/mqtt/mqtt_core/mqtt_core.o
 .comment       0x000000000000002f       0x30 build/AWS_IOT/production/mcc_generated_files/mqtt/mqtt_exchange_buffer/mqtt_exchange_buffer.o
 .comment       0x000000000000002f       0x30 build/AWS_IOT/production/mcc_generated_files/mqtt/mqtt_packetTransfer_interface.o
 .comment       0x000000000000002f       0x30 build/AWS_IOT/production/mcc_generated_files/mqtt/mqtt_winc_adapter.o
 .comment       0x000000000000002f       0x30 build/AWS_IOT/production/mcc_generated_files/src/pin_manager.o
 .comment       0x000000000000002f       0x30 build/AWS_IOT/production/mcc_generated_files/src/cpuint.o
 .comment       0x000000000000002f       0x30 build/AWS_IOT/production/mcc_generated_files/src/spi0.o
 .comment       0x000000000000002f       0x30 build/AWS_IOT/production/mcc_generated_files/src/rtc.o
 .comment       0x000000000000002f       0x30 build/AWS_IOT/production/mcc_generated_files/src/twi0_master.o
 .comment       0x000000000000002f       0x30 build/AWS_IOT/production/mcc_generated_files/src/adc0.o
 .comment       0x000000000000002f       0x30 build/AWS_IOT/production/mcc_generated_files/src/usart2.o
 .comment       0x000000000000002f       0x30 build/AWS_IOT/production/mcc_generated_files/winc/driver/winc_spi.o
 .comment       0x000000000000002f       0x30 build/AWS_IOT/production/mcc_generated_files/winc/driver/winc_adapter.o
 .comment       0x000000000000002f       0x30 build/AWS_IOT/production/mcc_generated_files/winc/driver/winc_hif.o
 .comment       0x000000000000002f       0x30 build/AWS_IOT/production/mcc_generated_files/winc/driver/winc_asic.o
 .comment       0x000000000000002f       0x30 build/AWS_IOT/production/mcc_generated_files/winc/driver/winc_drv.o
 .comment       0x000000000000002f       0x30 build/AWS_IOT/production/mcc_generated_files/winc/m2m/m2m_ssl.o
 .comment       0x000000000000002f       0x30 build/AWS_IOT/production/mcc_generated_files/winc/m2m/m2m_wifi.o
 .comment       0x000000000000002f       0x30 build/AWS_IOT/production/mcc_generated_files/winc/m2m/m2m_fwinfo.o
 .comment       0x000000000000002f       0x30 build/AWS_IOT/production/mcc_generated_files/winc/socket/socket.o
 .comment       0x000000000000002f       0x30 build/AWS_IOT/production/mcc_generated_files/winc/spi_flash/spi_flash.o
 .comment       0x000000000000002f       0x30 build/AWS_IOT/production/mcc_generated_files/mcc.o
 .comment       0x000000000000002f       0x30 build/AWS_IOT/production/mcc_generated_files/delay.o
 .comment       0x000000000000002f       0x30 build/AWS_IOT/production/mcc_generated_files/device_config.o
 .comment       0x000000000000002f       0x30 build/AWS_IOT/production/mcc_generated_files/application_manager.o
 .comment       0x000000000000002f       0x30 build/AWS_IOT/production/mcc_generated_files/debug_print.o
 .comment       0x000000000000002f       0x30 build/AWS_IOT/production/mcc_generated_files/led.o
 .comment       0x000000000000002f       0x30 build/AWS_IOT/production/mcc_generated_files/sensors_handling.o
 .comment       0x000000000000002f       0x30 build/AWS_IOT/production/mcc_generated_files/time_service.o
 .comment       0x000000000000002f       0x30 build/AWS_IOT/production/mcc_generated_files/CryptoAuthenticationLibrary/CryptoAuth_init.o
 .comment       0x000000000000002f       0x30 build/AWS_IOT/production/main.o
 .comment       0x000000000000002f       0x2c /Applications/microchip/xc8/v2.10/avr/bin/../lib/gcc/avr/5.4.0/../../../../avr/lib/avrxmega3/libc.a(atoi_M.o)
                                         0x2d (size before relaxing)
 .comment       0x000000000000005b       0x2d /Applications/microchip/xc8/v2.10/avr/bin/../lib/gcc/avr/5.4.0/../../../../avr/lib/avrxmega3/libc.a(strtok.o)
 .comment       0x000000000000005b       0x2d /Applications/microchip/xc8/v2.10/avr/bin/../lib/gcc/avr/5.4.0/../../../../avr/lib/avrxmega3/libc.a(iob.o)
 .comment       0x000000000000005b       0x2d /Applications/microchip/xc8/v2.10/avr/bin/../lib/gcc/avr/5.4.0/../../../../avr/lib/avrxmega3/libc.a(printf.o)
 .comment       0x000000000000005b       0x2d /Applications/microchip/xc8/v2.10/avr/bin/../lib/gcc/avr/5.4.0/../../../../avr/lib/avrxmega3/libc.a(puts.o)
 .comment       0x000000000000005b       0x2d /Applications/microchip/xc8/v2.10/avr/bin/../lib/gcc/avr/5.4.0/../../../../avr/lib/avrxmega3/libc.a(sprintf.o)
 .comment       0x000000000000005b       0x2d /Applications/microchip/xc8/v2.10/avr/bin/../lib/gcc/avr/5.4.0/../../../../avr/lib/avrxmega3/libc.a(vprintf.o)
 .comment       0x000000000000005b       0x2d /Applications/microchip/xc8/v2.10/avr/bin/../lib/gcc/avr/5.4.0/../../../../avr/lib/avrxmega3/libc.a(ctime.o)
 .comment       0x000000000000005b       0x2d /Applications/microchip/xc8/v2.10/avr/bin/../lib/gcc/avr/5.4.0/../../../../avr/lib/avrxmega3/libc.a(difftime.o)
 .comment       0x000000000000005b       0x2d /Applications/microchip/xc8/v2.10/avr/bin/../lib/gcc/avr/5.4.0/../../../../avr/lib/avrxmega3/libc.a(localtime_r.o)
 .comment       0x000000000000005b       0x2d /Applications/microchip/xc8/v2.10/avr/bin/../lib/gcc/avr/5.4.0/../../../../avr/lib/avrxmega3/libc.a(mktime.o)
 .comment       0x000000000000005b       0x2d /Applications/microchip/xc8/v2.10/avr/bin/../lib/gcc/avr/5.4.0/../../../../avr/lib/avrxmega3/libc.a(set_system_time.o)
 .comment       0x000000000000005b       0x2d /Applications/microchip/xc8/v2.10/avr/bin/../lib/gcc/avr/5.4.0/../../../../avr/lib/avrxmega3/libc.a(system_time.o)
 .comment       0x000000000000005b       0x2d /Applications/microchip/xc8/v2.10/avr/bin/../lib/gcc/avr/5.4.0/../../../../avr/lib/avrxmega3/libc.a(utc_offset.o)
 .comment       0x000000000000005b       0x2d /Applications/microchip/xc8/v2.10/avr/bin/../lib/gcc/avr/5.4.0/../../../../avr/lib/avrxmega3/libc.a(vfprintf_std.o)
 .comment       0x000000000000005b       0x2d /Applications/microchip/xc8/v2.10/avr/bin/../lib/gcc/avr/5.4.0/../../../../avr/lib/avrxmega3/libc.a(fputc.o)
 .comment       0x000000000000005b       0x2d /Applications/microchip/xc8/v2.10/avr/bin/../lib/gcc/avr/5.4.0/../../../../avr/lib/avrxmega3/libc.a(asc_store.o)
 .comment       0x000000000000005b       0x2d /Applications/microchip/xc8/v2.10/avr/bin/../lib/gcc/avr/5.4.0/../../../../avr/lib/avrxmega3/libc.a(asctime_r.o)
 .comment       0x000000000000005b       0x2d /Applications/microchip/xc8/v2.10/avr/bin/../lib/gcc/avr/5.4.0/../../../../avr/lib/avrxmega3/libc.a(dst_pointer.o)
 .comment       0x000000000000005b       0x2d /Applications/microchip/xc8/v2.10/avr/bin/../lib/gcc/avr/5.4.0/../../../../avr/lib/avrxmega3/libc.a(gmtime_r.o)
 .comment       0x000000000000005b       0x2d /Applications/microchip/xc8/v2.10/avr/bin/../lib/gcc/avr/5.4.0/../../../../avr/lib/avrxmega3/libc.a(mk_gmtime.o)
 .comment       0x000000000000005b       0x2d /Applications/microchip/xc8/v2.10/avr/bin/../lib/gcc/avr/5.4.0/../../../../avr/lib/avrxmega3/libc.a(print_lz.o)
 .comment       0x000000000000005b       0x2d /Applications/microchip/xc8/v2.10/avr/bin/../lib/gcc/avr/5.4.0/../../../../avr/lib/avrxmega3/libc.a(isLeap.o)

.note.gnu.build-id
 *(.note.gnu.build-id)

.debug
 *(.debug)

.line
 *(.line)

.debug_srcinfo
 *(.debug_srcinfo)

.debug_sfnames
 *(.debug_sfnames)

.debug_aranges  0x0000000000000000     0x19f0
 *(.debug_aranges)
 .debug_aranges
                0x0000000000000000       0x70 build/AWS_IOT/production/mcc_generated_files/cli/cli.o
 .debug_aranges
                0x0000000000000070       0x58 build/AWS_IOT/production/mcc_generated_files/cloud/crypto_client/crypto_client.o
 .debug_aranges
                0x00000000000000c8       0x70 build/AWS_IOT/production/mcc_generated_files/cloud/cloud_service.o
 .debug_aranges
                0x0000000000000138       0x70 build/AWS_IOT/production/mcc_generated_files/cloud/wifi_service.o
 .debug_aranges
                0x00000000000001a8       0x50 build/AWS_IOT/production/mcc_generated_files/cloud/mqtt_service.o
 .debug_aranges
                0x00000000000001f8       0x60 build/AWS_IOT/production/mcc_generated_files/cloud/aws_cloud_service.o
 .debug_aranges
                0x0000000000000258       0x20 build/AWS_IOT/production/mcc_generated_files/credentials_storage/credentials_storage.o
 .debug_aranges
                0x0000000000000278       0x80 build/AWS_IOT/production/mcc_generated_files/CryptoAuthenticationLibrary/basic/atca_basic.o
 .debug_aranges
                0x00000000000002f8       0x48 build/AWS_IOT/production/mcc_generated_files/CryptoAuthenticationLibrary/basic/atca_basic_ecdh.o
 .debug_aranges
                0x0000000000000340       0x30 build/AWS_IOT/production/mcc_generated_files/CryptoAuthenticationLibrary/basic/atca_basic_genkey.o
 .debug_aranges
                0x0000000000000370       0x48 build/AWS_IOT/production/mcc_generated_files/CryptoAuthenticationLibrary/basic/atca_basic_lock.o
 .debug_aranges
                0x00000000000003b8       0x48 build/AWS_IOT/production/mcc_generated_files/CryptoAuthenticationLibrary/basic/atca_basic_nonce.o
 .debug_aranges
                0x0000000000000400       0x20 build/AWS_IOT/production/mcc_generated_files/CryptoAuthenticationLibrary/basic/atca_basic_random.o
 .debug_aranges
                0x0000000000000420       0x68 build/AWS_IOT/production/mcc_generated_files/CryptoAuthenticationLibrary/basic/atca_basic_read.o
 .debug_aranges
                0x0000000000000488       0x30 build/AWS_IOT/production/mcc_generated_files/CryptoAuthenticationLibrary/basic/atca_basic_sign.o
 .debug_aranges
                0x00000000000004b8       0x58 build/AWS_IOT/production/mcc_generated_files/CryptoAuthenticationLibrary/basic/atca_basic_verify.o
 .debug_aranges
                0x0000000000000510       0x30 build/AWS_IOT/production/mcc_generated_files/CryptoAuthenticationLibrary/hal/atca_hal.o
 .debug_aranges
                0x0000000000000540       0x68 build/AWS_IOT/production/mcc_generated_files/CryptoAuthenticationLibrary/hal/atca_i2c_hal.o
 .debug_aranges
                0x00000000000005a8       0x28 build/AWS_IOT/production/mcc_generated_files/CryptoAuthenticationLibrary/hal/hal_i2c_timer.o
 .debug_aranges
                0x00000000000005d0      0x110 build/AWS_IOT/production/mcc_generated_files/CryptoAuthenticationLibrary/atca_command.o
 .debug_aranges
                0x00000000000006e0       0x38 build/AWS_IOT/production/mcc_generated_files/CryptoAuthenticationLibrary/atca_device.o
 .debug_aranges
                0x0000000000000718       0x28 build/AWS_IOT/production/mcc_generated_files/CryptoAuthenticationLibrary/atca_execution.o
 .debug_aranges
                0x0000000000000740       0x70 build/AWS_IOT/production/mcc_generated_files/CryptoAuthenticationLibrary/atca_iface.o
 .debug_aranges
                0x00000000000007b0       0x28 build/AWS_IOT/production/mcc_generated_files/drivers/spi_master.o
 .debug_aranges
                0x00000000000007d8       0xc0 build/AWS_IOT/production/mcc_generated_files/drivers/timeout.o
 .debug_aranges
                0x0000000000000898       0x78 build/AWS_IOT/production/mcc_generated_files/drivers/i2c_simple_master.o
 .debug_aranges
                0x0000000000000910       0x48 build/AWS_IOT/production/mcc_generated_files/mqtt/mqtt_comm_bsd/mqtt_comm_layer.o
 .debug_aranges
                0x0000000000000958       0xb0 build/AWS_IOT/production/mcc_generated_files/mqtt/mqtt_core/mqtt_core.o
 .debug_aranges
                0x0000000000000a08       0x38 build/AWS_IOT/production/mcc_generated_files/mqtt/mqtt_exchange_buffer/mqtt_exchange_buffer.o
 .debug_aranges
                0x0000000000000a40       0x28 build/AWS_IOT/production/mcc_generated_files/mqtt/mqtt_packetTransfer_interface.o
 .debug_aranges
                0x0000000000000a68       0xe0 build/AWS_IOT/production/mcc_generated_files/mqtt/mqtt_winc_adapter.o
 .debug_aranges
                0x0000000000000b48      0x160 build/AWS_IOT/production/mcc_generated_files/src/pin_manager.o
 .debug_aranges
                0x0000000000000ca8       0x20 build/AWS_IOT/production/mcc_generated_files/src/cpuint.o
 .debug_aranges
                0x0000000000000cc8       0x98 build/AWS_IOT/production/mcc_generated_files/src/spi0.o
 .debug_aranges
                0x0000000000000d60       0x20 build/AWS_IOT/production/mcc_generated_files/src/protected_io.o
 .debug_aranges
                0x0000000000000d80       0xa0 build/AWS_IOT/production/mcc_generated_files/src/rtc.o
 .debug_aranges
                0x0000000000000e20      0x1f8 build/AWS_IOT/production/mcc_generated_files/src/twi0_master.o
 .debug_aranges
                0x0000000000001018       0xa8 build/AWS_IOT/production/mcc_generated_files/src/adc0.o
 .debug_aranges
                0x00000000000010c0       0xc0 build/AWS_IOT/production/mcc_generated_files/src/usart2.o
 .debug_aranges
                0x0000000000001180       0x98 build/AWS_IOT/production/mcc_generated_files/winc/driver/winc_spi.o
 .debug_aranges
                0x0000000000001218       0x88 build/AWS_IOT/production/mcc_generated_files/winc/driver/winc_adapter.o
 .debug_aranges
                0x00000000000012a0       0x68 build/AWS_IOT/production/mcc_generated_files/winc/driver/winc_hif.o
 .debug_aranges
                0x0000000000001308       0x68 build/AWS_IOT/production/mcc_generated_files/winc/driver/winc_asic.o
 .debug_aranges
                0x0000000000001370       0x30 build/AWS_IOT/production/mcc_generated_files/winc/driver/winc_drv.o
 .debug_aranges
                0x00000000000013a0       0x60 build/AWS_IOT/production/mcc_generated_files/winc/m2m/m2m_ssl.o
 .debug_aranges
                0x0000000000001400      0x248 build/AWS_IOT/production/mcc_generated_files/winc/m2m/m2m_wifi.o
 .debug_aranges
                0x0000000000001648       0x28 build/AWS_IOT/production/mcc_generated_files/winc/m2m/m2m_fwinfo.o
 .debug_aranges
                0x0000000000001670       0xc8 build/AWS_IOT/production/mcc_generated_files/winc/socket/socket.o
 .debug_aranges
                0x0000000000001738       0x60 build/AWS_IOT/production/mcc_generated_files/winc/spi_flash/spi_flash.o
 .debug_aranges
                0x0000000000001798       0x48 build/AWS_IOT/production/mcc_generated_files/mcc.o
 .debug_aranges
                0x00000000000017e0       0x28 build/AWS_IOT/production/mcc_generated_files/delay.o
 .debug_aranges
                0x0000000000001808       0x18 build/AWS_IOT/production/mcc_generated_files/device_config.o
 .debug_aranges
                0x0000000000001820       0x70 build/AWS_IOT/production/mcc_generated_files/application_manager.o
 .debug_aranges
                0x0000000000001890       0x38 build/AWS_IOT/production/mcc_generated_files/debug_print.o
 .debug_aranges
                0x00000000000018c8       0x50 build/AWS_IOT/production/mcc_generated_files/led.o
 .debug_aranges
                0x0000000000001918       0x28 build/AWS_IOT/production/mcc_generated_files/sensors_handling.o
 .debug_aranges
                0x0000000000001940       0x70 build/AWS_IOT/production/mcc_generated_files/time_service.o
 .debug_aranges
                0x00000000000019b0       0x20 build/AWS_IOT/production/mcc_generated_files/CryptoAuthenticationLibrary/CryptoAuth_init.o
 .debug_aranges
                0x00000000000019d0       0x20 build/AWS_IOT/production/main.o

.debug_pubnames
 *(.debug_pubnames)

.debug_info     0x0000000000000000    0x3c90b
 *(.debug_info .gnu.linkonce.wi.*)
 .debug_info    0x0000000000000000     0x229c /Applications/microchip/mplabx/v5.30/packs/Microchip/ATmega_DFP/2.0.12/gcc/dev/atmega4808/avrxmega3/crtatmega4808.o
 .debug_info    0x000000000000229c     0x1203 build/AWS_IOT/production/mcc_generated_files/cli/cli.o
 .debug_info    0x000000000000349f     0x1927 build/AWS_IOT/production/mcc_generated_files/cloud/crypto_client/crypto_client.o
 .debug_info    0x0000000000004dc6     0x16fe build/AWS_IOT/production/mcc_generated_files/cloud/cloud_service.o
 .debug_info    0x00000000000064c4     0x1c42 build/AWS_IOT/production/mcc_generated_files/cloud/wifi_service.o
 .debug_info    0x0000000000008106      0xd55 build/AWS_IOT/production/mcc_generated_files/cloud/mqtt_service.o
 .debug_info    0x0000000000008e5b     0x14c3 build/AWS_IOT/production/mcc_generated_files/cloud/aws_cloud_service.o
 .debug_info    0x000000000000a31e      0x356 build/AWS_IOT/production/mcc_generated_files/credentials_storage/credentials_storage.o
 .debug_info    0x000000000000a674     0x1201 build/AWS_IOT/production/mcc_generated_files/CryptoAuthenticationLibrary/basic/atca_basic.o
 .debug_info    0x000000000000b875     0x124a build/AWS_IOT/production/mcc_generated_files/CryptoAuthenticationLibrary/basic/atca_basic_ecdh.o
 .debug_info    0x000000000000cabf      0xea5 build/AWS_IOT/production/mcc_generated_files/CryptoAuthenticationLibrary/basic/atca_basic_genkey.o
 .debug_info    0x000000000000d964      0xeec build/AWS_IOT/production/mcc_generated_files/CryptoAuthenticationLibrary/basic/atca_basic_lock.o
 .debug_info    0x000000000000e850     0x1005 build/AWS_IOT/production/mcc_generated_files/CryptoAuthenticationLibrary/basic/atca_basic_nonce.o
 .debug_info    0x000000000000f855      0xd41 build/AWS_IOT/production/mcc_generated_files/CryptoAuthenticationLibrary/basic/atca_basic_random.o
 .debug_info    0x0000000000010596     0x1bd9 build/AWS_IOT/production/mcc_generated_files/CryptoAuthenticationLibrary/basic/atca_basic_read.o
 .debug_info    0x000000000001216f      0xf6e build/AWS_IOT/production/mcc_generated_files/CryptoAuthenticationLibrary/basic/atca_basic_sign.o
 .debug_info    0x00000000000130dd     0x16c2 build/AWS_IOT/production/mcc_generated_files/CryptoAuthenticationLibrary/basic/atca_basic_verify.o
 .debug_info    0x000000000001479f      0xd91 build/AWS_IOT/production/mcc_generated_files/CryptoAuthenticationLibrary/hal/atca_hal.o
 .debug_info    0x0000000000015530     0x101c build/AWS_IOT/production/mcc_generated_files/CryptoAuthenticationLibrary/hal/atca_i2c_hal.o
 .debug_info    0x000000000001654c      0x3e6 build/AWS_IOT/production/mcc_generated_files/CryptoAuthenticationLibrary/hal/hal_i2c_timer.o
 .debug_info    0x0000000000016932     0x12a1 build/AWS_IOT/production/mcc_generated_files/CryptoAuthenticationLibrary/atca_command.o
 .debug_info    0x0000000000017bd3      0xd1a build/AWS_IOT/production/mcc_generated_files/CryptoAuthenticationLibrary/atca_device.o
 .debug_info    0x00000000000188ed     0x102b build/AWS_IOT/production/mcc_generated_files/CryptoAuthenticationLibrary/atca_execution.o
 .debug_info    0x0000000000019918     0x100b build/AWS_IOT/production/mcc_generated_files/CryptoAuthenticationLibrary/atca_iface.o
 .debug_info    0x000000000001a923      0x502 build/AWS_IOT/production/mcc_generated_files/drivers/spi_master.o
 .debug_info    0x000000000001ae25      0xeb0 build/AWS_IOT/production/mcc_generated_files/drivers/timeout.o
 .debug_info    0x000000000001bcd5      0xc57 build/AWS_IOT/production/mcc_generated_files/drivers/i2c_simple_master.o
 .debug_info    0x000000000001c92c      0x65d build/AWS_IOT/production/mcc_generated_files/mqtt/mqtt_comm_bsd/mqtt_comm_layer.o
 .debug_info    0x000000000001cf89     0x31c6 build/AWS_IOT/production/mcc_generated_files/mqtt/mqtt_core/mqtt_core.o
 .debug_info    0x000000000002014f      0x4e2 build/AWS_IOT/production/mcc_generated_files/mqtt/mqtt_exchange_buffer/mqtt_exchange_buffer.o
 .debug_info    0x0000000000020631      0x374 build/AWS_IOT/production/mcc_generated_files/mqtt/mqtt_packetTransfer_interface.o
 .debug_info    0x00000000000209a5     0x2674 build/AWS_IOT/production/mcc_generated_files/mqtt/mqtt_winc_adapter.o
 .debug_info    0x0000000000023019     0x158a build/AWS_IOT/production/mcc_generated_files/src/pin_manager.o
 .debug_info    0x00000000000245a3      0x3ed build/AWS_IOT/production/mcc_generated_files/src/cpuint.o
 .debug_info    0x0000000000024990      0x7d0 build/AWS_IOT/production/mcc_generated_files/src/spi0.o
 .debug_info    0x0000000000025160       0xb6 build/AWS_IOT/production/mcc_generated_files/src/protected_io.o
 .debug_info    0x0000000000025216      0x912 build/AWS_IOT/production/mcc_generated_files/src/rtc.o
 .debug_info    0x0000000000025b28     0x19e6 build/AWS_IOT/production/mcc_generated_files/src/twi0_master.o
 .debug_info    0x000000000002750e      0xb37 build/AWS_IOT/production/mcc_generated_files/src/adc0.o
 .debug_info    0x0000000000028045      0xb10 build/AWS_IOT/production/mcc_generated_files/src/usart2.o
 .debug_info    0x0000000000028b55      0xdab build/AWS_IOT/production/mcc_generated_files/winc/driver/winc_spi.o
 .debug_info    0x0000000000029900      0xb68 build/AWS_IOT/production/mcc_generated_files/winc/driver/winc_adapter.o
 .debug_info    0x000000000002a468      0xb6d build/AWS_IOT/production/mcc_generated_files/winc/driver/winc_hif.o
 .debug_info    0x000000000002afd5      0xdcb build/AWS_IOT/production/mcc_generated_files/winc/driver/winc_asic.o
 .debug_info    0x000000000002bda0      0x577 build/AWS_IOT/production/mcc_generated_files/winc/driver/winc_drv.o
 .debug_info    0x000000000002c317     0x1070 build/AWS_IOT/production/mcc_generated_files/winc/m2m/m2m_ssl.o
 .debug_info    0x000000000002d387     0x5a02 build/AWS_IOT/production/mcc_generated_files/winc/m2m/m2m_wifi.o
 .debug_info    0x0000000000032d89      0x680 build/AWS_IOT/production/mcc_generated_files/winc/m2m/m2m_fwinfo.o
 .debug_info    0x0000000000033409     0x2567 build/AWS_IOT/production/mcc_generated_files/winc/socket/socket.o
 .debug_info    0x0000000000035970     0x1588 build/AWS_IOT/production/mcc_generated_files/winc/spi_flash/spi_flash.o
 .debug_info    0x0000000000036ef8      0xbab build/AWS_IOT/production/mcc_generated_files/mcc.o
 .debug_info    0x0000000000037aa3      0x41f build/AWS_IOT/production/mcc_generated_files/delay.o
 .debug_info    0x0000000000037ec2      0x801 build/AWS_IOT/production/mcc_generated_files/device_config.o
 .debug_info    0x00000000000386c3     0x16cd build/AWS_IOT/production/mcc_generated_files/application_manager.o
 .debug_info    0x0000000000039d90      0x67f build/AWS_IOT/production/mcc_generated_files/debug_print.o
 .debug_info    0x000000000003a40f      0xa42 build/AWS_IOT/production/mcc_generated_files/led.o
 .debug_info    0x000000000003ae51      0x35c build/AWS_IOT/production/mcc_generated_files/sensors_handling.o
 .debug_info    0x000000000003b1ad      0x893 build/AWS_IOT/production/mcc_generated_files/time_service.o
 .debug_info    0x000000000003ba40      0xcc2 build/AWS_IOT/production/mcc_generated_files/CryptoAuthenticationLibrary/CryptoAuth_init.o
 .debug_info    0x000000000003c702      0x209 build/AWS_IOT/production/main.o

.debug_abbrev   0x0000000000000000     0x8f60
 *(.debug_abbrev)
 .debug_abbrev  0x0000000000000000     0x20c2 /Applications/microchip/mplabx/v5.30/packs/Microchip/ATmega_DFP/2.0.12/gcc/dev/atmega4808/avrxmega3/crtatmega4808.o
 .debug_abbrev  0x00000000000020c2      0x3f7 build/AWS_IOT/production/mcc_generated_files/cli/cli.o
 .debug_abbrev  0x00000000000024b9      0x2bd build/AWS_IOT/production/mcc_generated_files/cloud/crypto_client/crypto_client.o
 .debug_abbrev  0x0000000000002776      0x3ee build/AWS_IOT/production/mcc_generated_files/cloud/cloud_service.o
 .debug_abbrev  0x0000000000002b64      0x2e3 build/AWS_IOT/production/mcc_generated_files/cloud/wifi_service.o
 .debug_abbrev  0x0000000000002e47      0x297 build/AWS_IOT/production/mcc_generated_files/cloud/mqtt_service.o
 .debug_abbrev  0x00000000000030de      0x238 build/AWS_IOT/production/mcc_generated_files/cloud/aws_cloud_service.o
 .debug_abbrev  0x0000000000003316       0x5c build/AWS_IOT/production/mcc_generated_files/credentials_storage/credentials_storage.o
 .debug_abbrev  0x0000000000003372      0x21b build/AWS_IOT/production/mcc_generated_files/CryptoAuthenticationLibrary/basic/atca_basic.o
 .debug_abbrev  0x000000000000358d      0x1dc build/AWS_IOT/production/mcc_generated_files/CryptoAuthenticationLibrary/basic/atca_basic_ecdh.o
 .debug_abbrev  0x0000000000003769      0x17c build/AWS_IOT/production/mcc_generated_files/CryptoAuthenticationLibrary/basic/atca_basic_genkey.o
 .debug_abbrev  0x00000000000038e5      0x179 build/AWS_IOT/production/mcc_generated_files/CryptoAuthenticationLibrary/basic/atca_basic_lock.o
 .debug_abbrev  0x0000000000003a5e      0x180 build/AWS_IOT/production/mcc_generated_files/CryptoAuthenticationLibrary/basic/atca_basic_nonce.o
 .debug_abbrev  0x0000000000003bde      0x158 build/AWS_IOT/production/mcc_generated_files/CryptoAuthenticationLibrary/basic/atca_basic_random.o
 .debug_abbrev  0x0000000000003d36      0x2e2 build/AWS_IOT/production/mcc_generated_files/CryptoAuthenticationLibrary/basic/atca_basic_read.o
 .debug_abbrev  0x0000000000004018      0x1aa build/AWS_IOT/production/mcc_generated_files/CryptoAuthenticationLibrary/basic/atca_basic_sign.o
 .debug_abbrev  0x00000000000041c2      0x23d build/AWS_IOT/production/mcc_generated_files/CryptoAuthenticationLibrary/basic/atca_basic_verify.o
 .debug_abbrev  0x00000000000043ff      0x18d build/AWS_IOT/production/mcc_generated_files/CryptoAuthenticationLibrary/hal/atca_hal.o
 .debug_abbrev  0x000000000000458c      0x190 build/AWS_IOT/production/mcc_generated_files/CryptoAuthenticationLibrary/hal/atca_i2c_hal.o
 .debug_abbrev  0x000000000000471c      0x10d build/AWS_IOT/production/mcc_generated_files/CryptoAuthenticationLibrary/hal/hal_i2c_timer.o
 .debug_abbrev  0x0000000000004829      0x1b7 build/AWS_IOT/production/mcc_generated_files/CryptoAuthenticationLibrary/atca_command.o
 .debug_abbrev  0x00000000000049e0      0x136 build/AWS_IOT/production/mcc_generated_files/CryptoAuthenticationLibrary/atca_device.o
 .debug_abbrev  0x0000000000004b16      0x1b5 build/AWS_IOT/production/mcc_generated_files/CryptoAuthenticationLibrary/atca_execution.o
 .debug_abbrev  0x0000000000004ccb      0x1e7 build/AWS_IOT/production/mcc_generated_files/CryptoAuthenticationLibrary/atca_iface.o
 .debug_abbrev  0x0000000000004eb2      0x126 build/AWS_IOT/production/mcc_generated_files/drivers/spi_master.o
 .debug_abbrev  0x0000000000004fd8      0x32d build/AWS_IOT/production/mcc_generated_files/drivers/timeout.o
 .debug_abbrev  0x0000000000005305      0x14e build/AWS_IOT/production/mcc_generated_files/drivers/i2c_simple_master.o
 .debug_abbrev  0x0000000000005453      0x15c build/AWS_IOT/production/mcc_generated_files/mqtt/mqtt_comm_bsd/mqtt_comm_layer.o
 .debug_abbrev  0x00000000000055af      0x363 build/AWS_IOT/production/mcc_generated_files/mqtt/mqtt_core/mqtt_core.o
 .debug_abbrev  0x0000000000005912       0xdf build/AWS_IOT/production/mcc_generated_files/mqtt/mqtt_exchange_buffer/mqtt_exchange_buffer.o
 .debug_abbrev  0x00000000000059f1       0x9b build/AWS_IOT/production/mcc_generated_files/mqtt/mqtt_packetTransfer_interface.o
 .debug_abbrev  0x0000000000005a8c      0x344 build/AWS_IOT/production/mcc_generated_files/mqtt/mqtt_winc_adapter.o
 .debug_abbrev  0x0000000000005dd0      0x1b6 build/AWS_IOT/production/mcc_generated_files/src/pin_manager.o
 .debug_abbrev  0x0000000000005f86       0xfa build/AWS_IOT/production/mcc_generated_files/src/cpuint.o
 .debug_abbrev  0x0000000000006080      0x1c4 build/AWS_IOT/production/mcc_generated_files/src/spi0.o
 .debug_abbrev  0x0000000000006244       0x14 build/AWS_IOT/production/mcc_generated_files/src/protected_io.o
 .debug_abbrev  0x0000000000006258      0x152 build/AWS_IOT/production/mcc_generated_files/src/rtc.o
 .debug_abbrev  0x00000000000063aa      0x383 build/AWS_IOT/production/mcc_generated_files/src/twi0_master.o
 .debug_abbrev  0x000000000000672d      0x23a build/AWS_IOT/production/mcc_generated_files/src/adc0.o
 .debug_abbrev  0x0000000000006967      0x2df build/AWS_IOT/production/mcc_generated_files/src/usart2.o
 .debug_abbrev  0x0000000000006c46      0x272 build/AWS_IOT/production/mcc_generated_files/winc/driver/winc_spi.o
 .debug_abbrev  0x0000000000006eb8      0x1fe build/AWS_IOT/production/mcc_generated_files/winc/driver/winc_adapter.o
 .debug_abbrev  0x00000000000070b6      0x1da build/AWS_IOT/production/mcc_generated_files/winc/driver/winc_hif.o
 .debug_abbrev  0x0000000000007290      0x18f build/AWS_IOT/production/mcc_generated_files/winc/driver/winc_asic.o
 .debug_abbrev  0x000000000000741f       0xac build/AWS_IOT/production/mcc_generated_files/winc/driver/winc_drv.o
 .debug_abbrev  0x00000000000074cb      0x24b build/AWS_IOT/production/mcc_generated_files/winc/m2m/m2m_ssl.o
 .debug_abbrev  0x0000000000007716      0x342 build/AWS_IOT/production/mcc_generated_files/winc/m2m/m2m_wifi.o
 .debug_abbrev  0x0000000000007a58      0x141 build/AWS_IOT/production/mcc_generated_files/winc/m2m/m2m_fwinfo.o
 .debug_abbrev  0x0000000000007b99      0x344 build/AWS_IOT/production/mcc_generated_files/winc/socket/socket.o
 .debug_abbrev  0x0000000000007edd      0x1d1 build/AWS_IOT/production/mcc_generated_files/winc/spi_flash/spi_flash.o
 .debug_abbrev  0x00000000000080ae      0x169 build/AWS_IOT/production/mcc_generated_files/mcc.o
 .debug_abbrev  0x0000000000008217      0x11e build/AWS_IOT/production/mcc_generated_files/delay.o
 .debug_abbrev  0x0000000000008335       0x85 build/AWS_IOT/production/mcc_generated_files/device_config.o
 .debug_abbrev  0x00000000000083ba      0x3fb build/AWS_IOT/production/mcc_generated_files/application_manager.o
 .debug_abbrev  0x00000000000087b5      0x180 build/AWS_IOT/production/mcc_generated_files/debug_print.o
 .debug_abbrev  0x0000000000008935      0x21b build/AWS_IOT/production/mcc_generated_files/led.o
 .debug_abbrev  0x0000000000008b50       0x82 build/AWS_IOT/production/mcc_generated_files/sensors_handling.o
 .debug_abbrev  0x0000000000008bd2      0x1f7 build/AWS_IOT/production/mcc_generated_files/time_service.o
 .debug_abbrev  0x0000000000008dc9      0x13a build/AWS_IOT/production/mcc_generated_files/CryptoAuthenticationLibrary/CryptoAuth_init.o
 .debug_abbrev  0x0000000000008f03       0x5d build/AWS_IOT/production/main.o

.debug_line     0x0000000000000000     0xf4a0
 *(.debug_line .debug_line.* .debug_line_end)
 .debug_line    0x0000000000000000      0x16f /Applications/microchip/mplabx/v5.30/packs/Microchip/ATmega_DFP/2.0.12/gcc/dev/atmega4808/avrxmega3/crtatmega4808.o
 .debug_line    0x000000000000016f      0x616 build/AWS_IOT/production/mcc_generated_files/cli/cli.o
 .debug_line    0x0000000000000785      0x55f build/AWS_IOT/production/mcc_generated_files/cloud/crypto_client/crypto_client.o
 .debug_line    0x0000000000000ce4      0x6bb build/AWS_IOT/production/mcc_generated_files/cloud/cloud_service.o
 .debug_line    0x000000000000139f      0x651 build/AWS_IOT/production/mcc_generated_files/cloud/wifi_service.o
 .debug_line    0x00000000000019f0      0x2f0 build/AWS_IOT/production/mcc_generated_files/cloud/mqtt_service.o
 .debug_line    0x0000000000001ce0      0x607 build/AWS_IOT/production/mcc_generated_files/cloud/aws_cloud_service.o
 .debug_line    0x00000000000022e7       0x7d build/AWS_IOT/production/mcc_generated_files/credentials_storage/credentials_storage.o
 .debug_line    0x0000000000002364      0x530 build/AWS_IOT/production/mcc_generated_files/CryptoAuthenticationLibrary/basic/atca_basic.o
 .debug_line    0x0000000000002894      0x372 build/AWS_IOT/production/mcc_generated_files/CryptoAuthenticationLibrary/basic/atca_basic_ecdh.o
 .debug_line    0x0000000000002c06      0x1e2 build/AWS_IOT/production/mcc_generated_files/CryptoAuthenticationLibrary/basic/atca_basic_genkey.o
 .debug_line    0x0000000000002de8      0x219 build/AWS_IOT/production/mcc_generated_files/CryptoAuthenticationLibrary/basic/atca_basic_lock.o
 .debug_line    0x0000000000003001      0x28c build/AWS_IOT/production/mcc_generated_files/CryptoAuthenticationLibrary/basic/atca_basic_nonce.o
 .debug_line    0x000000000000328d      0x19c build/AWS_IOT/production/mcc_generated_files/CryptoAuthenticationLibrary/basic/atca_basic_random.o
 .debug_line    0x0000000000003429      0x65d build/AWS_IOT/production/mcc_generated_files/CryptoAuthenticationLibrary/basic/atca_basic_read.o
 .debug_line    0x0000000000003a86      0x21c build/AWS_IOT/production/mcc_generated_files/CryptoAuthenticationLibrary/basic/atca_basic_sign.o
 .debug_line    0x0000000000003ca2      0x52e build/AWS_IOT/production/mcc_generated_files/CryptoAuthenticationLibrary/basic/atca_basic_verify.o
 .debug_line    0x00000000000041d0      0x1f9 build/AWS_IOT/production/mcc_generated_files/CryptoAuthenticationLibrary/hal/atca_hal.o
 .debug_line    0x00000000000043c9      0x34d build/AWS_IOT/production/mcc_generated_files/CryptoAuthenticationLibrary/hal/atca_i2c_hal.o
 .debug_line    0x0000000000004716      0x13d build/AWS_IOT/production/mcc_generated_files/CryptoAuthenticationLibrary/hal/hal_i2c_timer.o
 .debug_line    0x0000000000004853      0x7d7 build/AWS_IOT/production/mcc_generated_files/CryptoAuthenticationLibrary/atca_command.o
 .debug_line    0x000000000000502a      0x19c build/AWS_IOT/production/mcc_generated_files/CryptoAuthenticationLibrary/atca_device.o
 .debug_line    0x00000000000051c6      0x289 build/AWS_IOT/production/mcc_generated_files/CryptoAuthenticationLibrary/atca_execution.o
 .debug_line    0x000000000000544f      0x2d6 build/AWS_IOT/production/mcc_generated_files/CryptoAuthenticationLibrary/atca_iface.o
 .debug_line    0x0000000000005725      0x155 build/AWS_IOT/production/mcc_generated_files/drivers/spi_master.o
 .debug_line    0x000000000000587a      0x6d4 build/AWS_IOT/production/mcc_generated_files/drivers/timeout.o
 .debug_line    0x0000000000005f4e      0x3a5 build/AWS_IOT/production/mcc_generated_files/drivers/i2c_simple_master.o
 .debug_line    0x00000000000062f3      0x279 build/AWS_IOT/production/mcc_generated_files/mqtt/mqtt_comm_bsd/mqtt_comm_layer.o
 .debug_line    0x000000000000656c      0xb77 build/AWS_IOT/production/mcc_generated_files/mqtt/mqtt_core/mqtt_core.o
 .debug_line    0x00000000000070e3      0x1ed build/AWS_IOT/production/mcc_generated_files/mqtt/mqtt_exchange_buffer/mqtt_exchange_buffer.o
 .debug_line    0x00000000000072d0       0xe3 build/AWS_IOT/production/mcc_generated_files/mqtt/mqtt_packetTransfer_interface.o
 .debug_line    0x00000000000073b3      0x9ba build/AWS_IOT/production/mcc_generated_files/mqtt/mqtt_winc_adapter.o
 .debug_line    0x0000000000007d6d      0x66c build/AWS_IOT/production/mcc_generated_files/src/pin_manager.o
 .debug_line    0x00000000000083d9      0x17a build/AWS_IOT/production/mcc_generated_files/src/cpuint.o
 .debug_line    0x0000000000008553      0x398 build/AWS_IOT/production/mcc_generated_files/src/spi0.o
 .debug_line    0x00000000000088eb       0x66 build/AWS_IOT/production/mcc_generated_files/src/protected_io.o
 .debug_line    0x0000000000008951      0x34b build/AWS_IOT/production/mcc_generated_files/src/rtc.o
 .debug_line    0x0000000000008c9c      0xafe build/AWS_IOT/production/mcc_generated_files/src/twi0_master.o
 .debug_line    0x000000000000979a      0x350 build/AWS_IOT/production/mcc_generated_files/src/adc0.o
 .debug_line    0x0000000000009aea      0x43d build/AWS_IOT/production/mcc_generated_files/src/usart2.o
 .debug_line    0x0000000000009f27      0x5e9 build/AWS_IOT/production/mcc_generated_files/winc/driver/winc_spi.o
 .debug_line    0x000000000000a510      0x40d build/AWS_IOT/production/mcc_generated_files/winc/driver/winc_adapter.o
 .debug_line    0x000000000000a91d      0x3b5 build/AWS_IOT/production/mcc_generated_files/winc/driver/winc_hif.o
 .debug_line    0x000000000000acd2      0x3aa build/AWS_IOT/production/mcc_generated_files/winc/driver/winc_asic.o
 .debug_line    0x000000000000b07c      0x1dd build/AWS_IOT/production/mcc_generated_files/winc/driver/winc_drv.o
 .debug_line    0x000000000000b259      0x468 build/AWS_IOT/production/mcc_generated_files/winc/m2m/m2m_ssl.o
 .debug_line    0x000000000000b6c1     0x1241 build/AWS_IOT/production/mcc_generated_files/winc/m2m/m2m_wifi.o
 .debug_line    0x000000000000c902      0x1ee build/AWS_IOT/production/mcc_generated_files/winc/m2m/m2m_fwinfo.o
 .debug_line    0x000000000000caf0      0xe51 build/AWS_IOT/production/mcc_generated_files/winc/socket/socket.o
 .debug_line    0x000000000000d941      0x514 build/AWS_IOT/production/mcc_generated_files/winc/spi_flash/spi_flash.o
 .debug_line    0x000000000000de55      0x32a build/AWS_IOT/production/mcc_generated_files/mcc.o
 .debug_line    0x000000000000e17f      0x127 build/AWS_IOT/production/mcc_generated_files/delay.o
 .debug_line    0x000000000000e2a6       0xdf build/AWS_IOT/production/mcc_generated_files/device_config.o
 .debug_line    0x000000000000e385      0x6dc build/AWS_IOT/production/mcc_generated_files/application_manager.o
 .debug_line    0x000000000000ea61      0x170 build/AWS_IOT/production/mcc_generated_files/debug_print.o
 .debug_line    0x000000000000ebd1      0x394 build/AWS_IOT/production/mcc_generated_files/led.o
 .debug_line    0x000000000000ef65      0x12b build/AWS_IOT/production/mcc_generated_files/sensors_handling.o
 .debug_line    0x000000000000f090      0x231 build/AWS_IOT/production/mcc_generated_files/time_service.o
 .debug_line    0x000000000000f2c1      0x16e build/AWS_IOT/production/mcc_generated_files/CryptoAuthenticationLibrary/CryptoAuth_init.o
 .debug_line    0x000000000000f42f       0x71 build/AWS_IOT/production/main.o

.debug_frame    0x0000000000000000     0x5118
 *(.debug_frame)
 .debug_frame   0x0000000000000000      0x17c build/AWS_IOT/production/mcc_generated_files/cli/cli.o
 .debug_frame   0x000000000000017c      0x1f8 build/AWS_IOT/production/mcc_generated_files/cloud/crypto_client/crypto_client.o
 .debug_frame   0x0000000000000374      0x2c4 build/AWS_IOT/production/mcc_generated_files/cloud/cloud_service.o
 .debug_frame   0x0000000000000638      0x254 build/AWS_IOT/production/mcc_generated_files/cloud/wifi_service.o
 .debug_frame   0x000000000000088c       0xf0 build/AWS_IOT/production/mcc_generated_files/cloud/mqtt_service.o
 .debug_frame   0x000000000000097c      0x13c build/AWS_IOT/production/mcc_generated_files/cloud/aws_cloud_service.o
 .debug_frame   0x0000000000000ab8       0x24 build/AWS_IOT/production/mcc_generated_files/credentials_storage/credentials_storage.o
 .debug_frame   0x0000000000000adc      0x158 build/AWS_IOT/production/mcc_generated_files/CryptoAuthenticationLibrary/basic/atca_basic.o
 .debug_frame   0x0000000000000c34      0x170 build/AWS_IOT/production/mcc_generated_files/CryptoAuthenticationLibrary/basic/atca_basic_ecdh.o
 .debug_frame   0x0000000000000da4       0x64 build/AWS_IOT/production/mcc_generated_files/CryptoAuthenticationLibrary/basic/atca_basic_genkey.o
 .debug_frame   0x0000000000000e08       0x88 build/AWS_IOT/production/mcc_generated_files/CryptoAuthenticationLibrary/basic/atca_basic_lock.o
 .debug_frame   0x0000000000000e90       0x9c build/AWS_IOT/production/mcc_generated_files/CryptoAuthenticationLibrary/basic/atca_basic_nonce.o
 .debug_frame   0x0000000000000f2c       0x40 build/AWS_IOT/production/mcc_generated_files/CryptoAuthenticationLibrary/basic/atca_basic_random.o
 .debug_frame   0x0000000000000f6c      0x2c0 build/AWS_IOT/production/mcc_generated_files/CryptoAuthenticationLibrary/basic/atca_basic_read.o
 .debug_frame   0x000000000000122c       0x84 build/AWS_IOT/production/mcc_generated_files/CryptoAuthenticationLibrary/basic/atca_basic_sign.o
 .debug_frame   0x00000000000012b0      0x218 build/AWS_IOT/production/mcc_generated_files/CryptoAuthenticationLibrary/basic/atca_basic_verify.o
 .debug_frame   0x00000000000014c8       0x60 build/AWS_IOT/production/mcc_generated_files/CryptoAuthenticationLibrary/hal/atca_hal.o
 .debug_frame   0x0000000000001528      0x110 build/AWS_IOT/production/mcc_generated_files/CryptoAuthenticationLibrary/hal/atca_i2c_hal.o
 .debug_frame   0x0000000000001638       0x34 build/AWS_IOT/production/mcc_generated_files/CryptoAuthenticationLibrary/hal/hal_i2c_timer.o
 .debug_frame   0x000000000000166c      0x254 build/AWS_IOT/production/mcc_generated_files/CryptoAuthenticationLibrary/atca_command.o
 .debug_frame   0x00000000000018c0       0x68 build/AWS_IOT/production/mcc_generated_files/CryptoAuthenticationLibrary/atca_device.o
 .debug_frame   0x0000000000001928       0x74 build/AWS_IOT/production/mcc_generated_files/CryptoAuthenticationLibrary/atca_execution.o
 .debug_frame   0x000000000000199c      0x110 build/AWS_IOT/production/mcc_generated_files/CryptoAuthenticationLibrary/atca_iface.o
 .debug_frame   0x0000000000001aac       0x34 build/AWS_IOT/production/mcc_generated_files/drivers/spi_master.o
 .debug_frame   0x0000000000001ae0      0x2c4 build/AWS_IOT/production/mcc_generated_files/drivers/timeout.o
 .debug_frame   0x0000000000001da4      0x18c build/AWS_IOT/production/mcc_generated_files/drivers/i2c_simple_master.o
 .debug_frame   0x0000000000001f30       0x90 build/AWS_IOT/production/mcc_generated_files/mqtt/mqtt_comm_bsd/mqtt_comm_layer.o
 .debug_frame   0x0000000000001fc0      0x230 build/AWS_IOT/production/mcc_generated_files/mqtt/mqtt_core/mqtt_core.o
 .debug_frame   0x00000000000021f0       0xb4 build/AWS_IOT/production/mcc_generated_files/mqtt/mqtt_exchange_buffer/mqtt_exchange_buffer.o
 .debug_frame   0x00000000000022a4       0x34 build/AWS_IOT/production/mcc_generated_files/mqtt/mqtt_packetTransfer_interface.o
 .debug_frame   0x00000000000022d8      0x35c build/AWS_IOT/production/mcc_generated_files/mqtt/mqtt_winc_adapter.o
 .debug_frame   0x0000000000002634      0x300 build/AWS_IOT/production/mcc_generated_files/src/pin_manager.o
 .debug_frame   0x0000000000002934       0x24 build/AWS_IOT/production/mcc_generated_files/src/cpuint.o
 .debug_frame   0x0000000000002958      0x114 build/AWS_IOT/production/mcc_generated_files/src/spi0.o
 .debug_frame   0x0000000000002a6c      0x1b4 build/AWS_IOT/production/mcc_generated_files/src/rtc.o
 .debug_frame   0x0000000000002c20      0x400 build/AWS_IOT/production/mcc_generated_files/src/twi0_master.o
 .debug_frame   0x0000000000003020      0x18c build/AWS_IOT/production/mcc_generated_files/src/adc0.o
 .debug_frame   0x00000000000031ac      0x210 build/AWS_IOT/production/mcc_generated_files/src/usart2.o
 .debug_frame   0x00000000000033bc      0x2b4 build/AWS_IOT/production/mcc_generated_files/winc/driver/winc_spi.o
 .debug_frame   0x0000000000003670      0x170 build/AWS_IOT/production/mcc_generated_files/winc/driver/winc_adapter.o
 .debug_frame   0x00000000000037e0      0x174 build/AWS_IOT/production/mcc_generated_files/winc/driver/winc_hif.o
 .debug_frame   0x0000000000003954      0x1a0 build/AWS_IOT/production/mcc_generated_files/winc/driver/winc_asic.o
 .debug_frame   0x0000000000003af4       0x58 build/AWS_IOT/production/mcc_generated_files/winc/driver/winc_drv.o
 .debug_frame   0x0000000000003b4c      0x190 build/AWS_IOT/production/mcc_generated_files/winc/m2m/m2m_ssl.o
 .debug_frame   0x0000000000003cdc      0x898 build/AWS_IOT/production/mcc_generated_files/winc/m2m/m2m_wifi.o
 .debug_frame   0x0000000000004574       0x54 build/AWS_IOT/production/mcc_generated_files/winc/m2m/m2m_fwinfo.o
 .debug_frame   0x00000000000045c8      0x368 build/AWS_IOT/production/mcc_generated_files/winc/socket/socket.o
 .debug_frame   0x0000000000004930      0x26c build/AWS_IOT/production/mcc_generated_files/winc/spi_flash/spi_flash.o
 .debug_frame   0x0000000000004b9c       0x84 build/AWS_IOT/production/mcc_generated_files/mcc.o
 .debug_frame   0x0000000000004c20       0x34 build/AWS_IOT/production/mcc_generated_files/delay.o
 .debug_frame   0x0000000000004c54      0x270 build/AWS_IOT/production/mcc_generated_files/application_manager.o
 .debug_frame   0x0000000000004ec4       0x64 build/AWS_IOT/production/mcc_generated_files/debug_print.o
 .debug_frame   0x0000000000004f28       0x84 build/AWS_IOT/production/mcc_generated_files/led.o
 .debug_frame   0x0000000000004fac       0x40 build/AWS_IOT/production/mcc_generated_files/sensors_handling.o
 .debug_frame   0x0000000000004fec       0xe4 build/AWS_IOT/production/mcc_generated_files/time_service.o
 .debug_frame   0x00000000000050d0       0x24 build/AWS_IOT/production/mcc_generated_files/CryptoAuthenticationLibrary/CryptoAuth_init.o
 .debug_frame   0x00000000000050f4       0x24 build/AWS_IOT/production/main.o

.debug_str      0x0000000000000000     0x2dd7
 *(.debug_str)
 .debug_str     0x0000000000000000      0xecd /Applications/microchip/mplabx/v5.30/packs/Microchip/ATmega_DFP/2.0.12/gcc/dev/atmega4808/avrxmega3/crtatmega4808.o
 .debug_str     0x0000000000000ecd       0xe7 build/AWS_IOT/production/mcc_generated_files/cli/cli.o
 .debug_str     0x0000000000000fb4      0x153 build/AWS_IOT/production/mcc_generated_files/cloud/crypto_client/crypto_client.o
 .debug_str     0x0000000000001107      0x12f build/AWS_IOT/production/mcc_generated_files/cloud/cloud_service.o
 .debug_str     0x0000000000001236      0x169 build/AWS_IOT/production/mcc_generated_files/cloud/wifi_service.o
 .debug_str     0x000000000000139f       0xe7 build/AWS_IOT/production/mcc_generated_files/cloud/mqtt_service.o
 .debug_str     0x0000000000001486      0x1a2 build/AWS_IOT/production/mcc_generated_files/cloud/aws_cloud_service.o
 .debug_str     0x0000000000001628        0x0 build/AWS_IOT/production/mcc_generated_files/credentials_storage/credentials_storage.o
 .debug_str     0x0000000000001628       0x9d build/AWS_IOT/production/mcc_generated_files/CryptoAuthenticationLibrary/basic/atca_basic.o
 .debug_str     0x00000000000016c5       0x6d build/AWS_IOT/production/mcc_generated_files/CryptoAuthenticationLibrary/basic/atca_basic_ecdh.o
 .debug_str     0x0000000000001732       0x30 build/AWS_IOT/production/mcc_generated_files/CryptoAuthenticationLibrary/basic/atca_basic_genkey.o
 .debug_str     0x0000000000001762       0x21 build/AWS_IOT/production/mcc_generated_files/CryptoAuthenticationLibrary/basic/atca_basic_lock.o
 .debug_str     0x0000000000001783       0x25 build/AWS_IOT/production/mcc_generated_files/CryptoAuthenticationLibrary/basic/atca_basic_nonce.o
 .debug_str     0x00000000000017a8       0x1e build/AWS_IOT/production/mcc_generated_files/CryptoAuthenticationLibrary/basic/atca_basic_random.o
 .debug_str     0x00000000000017c6       0xc6 build/AWS_IOT/production/mcc_generated_files/CryptoAuthenticationLibrary/basic/atca_basic_read.o
 .debug_str     0x000000000000188c       0x4b build/AWS_IOT/production/mcc_generated_files/CryptoAuthenticationLibrary/basic/atca_basic_sign.o
 .debug_str     0x00000000000018d7       0xb7 build/AWS_IOT/production/mcc_generated_files/CryptoAuthenticationLibrary/basic/atca_basic_verify.o
 .debug_str     0x000000000000198e       0x4f build/AWS_IOT/production/mcc_generated_files/CryptoAuthenticationLibrary/hal/atca_hal.o
 .debug_str     0x00000000000019dd       0x63 build/AWS_IOT/production/mcc_generated_files/CryptoAuthenticationLibrary/hal/atca_i2c_hal.o
 .debug_str     0x0000000000001a40       0x26 build/AWS_IOT/production/mcc_generated_files/CryptoAuthenticationLibrary/hal/hal_i2c_timer.o
 .debug_str     0x0000000000001a66       0x1a build/AWS_IOT/production/mcc_generated_files/CryptoAuthenticationLibrary/atca_command.o
 .debug_str     0x0000000000001a80       0x2f build/AWS_IOT/production/mcc_generated_files/CryptoAuthenticationLibrary/atca_device.o
 .debug_str     0x0000000000001aaf       0x5f build/AWS_IOT/production/mcc_generated_files/CryptoAuthenticationLibrary/atca_execution.o
 .debug_str     0x0000000000001b0e       0x7d build/AWS_IOT/production/mcc_generated_files/CryptoAuthenticationLibrary/atca_iface.o
 .debug_str     0x0000000000001b8b       0x17 build/AWS_IOT/production/mcc_generated_files/drivers/spi_master.o
 .debug_str     0x0000000000001ba2       0xaa build/AWS_IOT/production/mcc_generated_files/drivers/timeout.o
 .debug_str     0x0000000000001c4c       0x8b build/AWS_IOT/production/mcc_generated_files/drivers/i2c_simple_master.o
 .debug_str     0x0000000000001cd7       0x67 build/AWS_IOT/production/mcc_generated_files/mqtt/mqtt_comm_bsd/mqtt_comm_layer.o
 .debug_str     0x0000000000001d3e      0x14a build/AWS_IOT/production/mcc_generated_files/mqtt/mqtt_core/mqtt_core.o
 .debug_str     0x0000000000001e88        0xe build/AWS_IOT/production/mcc_generated_files/mqtt/mqtt_exchange_buffer/mqtt_exchange_buffer.o
 .debug_str     0x0000000000001e96        0x0 build/AWS_IOT/production/mcc_generated_files/mqtt/mqtt_packetTransfer_interface.o
 .debug_str     0x0000000000001e96       0x58 build/AWS_IOT/production/mcc_generated_files/mqtt/mqtt_winc_adapter.o
 .debug_str     0x0000000000001eee       0x60 build/AWS_IOT/production/mcc_generated_files/src/pin_manager.o
 .debug_str     0x0000000000001f4e       0x13 build/AWS_IOT/production/mcc_generated_files/src/cpuint.o
 .debug_str     0x0000000000001f61       0x17 build/AWS_IOT/production/mcc_generated_files/src/spi0.o
 .debug_str     0x0000000000001f78        0x9 build/AWS_IOT/production/mcc_generated_files/src/rtc.o
 .debug_str     0x0000000000001f81        0xf build/AWS_IOT/production/mcc_generated_files/src/twi0_master.o
 .debug_str     0x0000000000001f90        0x8 build/AWS_IOT/production/mcc_generated_files/src/adc0.o
 .debug_str     0x0000000000001f98        0x0 build/AWS_IOT/production/mcc_generated_files/src/usart2.o
 .debug_str     0x0000000000001f98       0x72 build/AWS_IOT/production/mcc_generated_files/winc/driver/winc_spi.o
 .debug_str     0x000000000000200a       0x3a build/AWS_IOT/production/mcc_generated_files/winc/driver/winc_adapter.o
 .debug_str     0x0000000000002044      0x123 build/AWS_IOT/production/mcc_generated_files/winc/driver/winc_hif.o
 .debug_str     0x0000000000002167       0xdf build/AWS_IOT/production/mcc_generated_files/winc/driver/winc_asic.o
 .debug_str     0x0000000000002246      0x129 build/AWS_IOT/production/mcc_generated_files/winc/driver/winc_drv.o
 .debug_str     0x000000000000236f       0x49 build/AWS_IOT/production/mcc_generated_files/winc/m2m/m2m_ssl.o
 .debug_str     0x00000000000023b8      0x428 build/AWS_IOT/production/mcc_generated_files/winc/m2m/m2m_wifi.o
 .debug_str     0x00000000000027e0       0x2f build/AWS_IOT/production/mcc_generated_files/winc/m2m/m2m_fwinfo.o
 .debug_str     0x000000000000280f      0x163 build/AWS_IOT/production/mcc_generated_files/winc/socket/socket.o
 .debug_str     0x0000000000002972       0xbd build/AWS_IOT/production/mcc_generated_files/winc/spi_flash/spi_flash.o
 .debug_str     0x0000000000002a2f      0x126 build/AWS_IOT/production/mcc_generated_files/mcc.o
 .debug_str     0x0000000000002b55       0x26 build/AWS_IOT/production/mcc_generated_files/delay.o
 .debug_str     0x0000000000002b7b        0x0 build/AWS_IOT/production/mcc_generated_files/device_config.o
 .debug_str     0x0000000000002b7b      0x192 build/AWS_IOT/production/mcc_generated_files/application_manager.o
 .debug_str     0x0000000000002d0d        0x0 build/AWS_IOT/production/mcc_generated_files/debug_print.o
 .debug_str     0x0000000000002d0d       0x2c build/AWS_IOT/production/mcc_generated_files/led.o
 .debug_str     0x0000000000002d39       0x29 build/AWS_IOT/production/mcc_generated_files/sensors_handling.o
 .debug_str     0x0000000000002d62       0x37 build/AWS_IOT/production/mcc_generated_files/time_service.o
 .debug_str     0x0000000000002d99       0x20 build/AWS_IOT/production/mcc_generated_files/CryptoAuthenticationLibrary/CryptoAuth_init.o
 .debug_str     0x0000000000002db9       0x1e build/AWS_IOT/production/main.o

.debug_loc      0x0000000000000000    0x10c74
 *(.debug_loc)
 .debug_loc     0x0000000000000000      0x3b0 build/AWS_IOT/production/mcc_generated_files/cli/cli.o
 .debug_loc     0x00000000000003b0      0x521 build/AWS_IOT/production/mcc_generated_files/cloud/crypto_client/crypto_client.o
 .debug_loc     0x00000000000008d1      0x20b build/AWS_IOT/production/mcc_generated_files/cloud/cloud_service.o
 .debug_loc     0x0000000000000adc      0x1e8 build/AWS_IOT/production/mcc_generated_files/cloud/wifi_service.o
 .debug_loc     0x0000000000000cc4      0x169 build/AWS_IOT/production/mcc_generated_files/cloud/mqtt_service.o
 .debug_loc     0x0000000000000e2d      0x2e4 build/AWS_IOT/production/mcc_generated_files/cloud/aws_cloud_service.o
 .debug_loc     0x0000000000001111      0x461 build/AWS_IOT/production/mcc_generated_files/CryptoAuthenticationLibrary/basic/atca_basic.o
 .debug_loc     0x0000000000001572      0x55c build/AWS_IOT/production/mcc_generated_files/CryptoAuthenticationLibrary/basic/atca_basic_ecdh.o
 .debug_loc     0x0000000000001ace      0x1d8 build/AWS_IOT/production/mcc_generated_files/CryptoAuthenticationLibrary/basic/atca_basic_genkey.o
 .debug_loc     0x0000000000001ca6      0x136 build/AWS_IOT/production/mcc_generated_files/CryptoAuthenticationLibrary/basic/atca_basic_lock.o
 .debug_loc     0x0000000000001ddc      0x447 build/AWS_IOT/production/mcc_generated_files/CryptoAuthenticationLibrary/basic/atca_basic_nonce.o
 .debug_loc     0x0000000000002223       0x79 build/AWS_IOT/production/mcc_generated_files/CryptoAuthenticationLibrary/basic/atca_basic_random.o
 .debug_loc     0x000000000000229c      0xee3 build/AWS_IOT/production/mcc_generated_files/CryptoAuthenticationLibrary/basic/atca_basic_read.o
 .debug_loc     0x000000000000317f      0x32d build/AWS_IOT/production/mcc_generated_files/CryptoAuthenticationLibrary/basic/atca_basic_sign.o
 .debug_loc     0x00000000000034ac      0xfdb build/AWS_IOT/production/mcc_generated_files/CryptoAuthenticationLibrary/basic/atca_basic_verify.o
 .debug_loc     0x0000000000004487      0x1a3 build/AWS_IOT/production/mcc_generated_files/CryptoAuthenticationLibrary/hal/atca_hal.o
 .debug_loc     0x000000000000462a      0x31b build/AWS_IOT/production/mcc_generated_files/CryptoAuthenticationLibrary/hal/atca_i2c_hal.o
 .debug_loc     0x0000000000004945       0xf2 build/AWS_IOT/production/mcc_generated_files/CryptoAuthenticationLibrary/hal/hal_i2c_timer.o
 .debug_loc     0x0000000000004a37      0xb39 build/AWS_IOT/production/mcc_generated_files/CryptoAuthenticationLibrary/atca_command.o
 .debug_loc     0x0000000000005570      0x19d build/AWS_IOT/production/mcc_generated_files/CryptoAuthenticationLibrary/atca_device.o
 .debug_loc     0x000000000000570d      0x239 build/AWS_IOT/production/mcc_generated_files/CryptoAuthenticationLibrary/atca_execution.o
 .debug_loc     0x0000000000005946      0x3f1 build/AWS_IOT/production/mcc_generated_files/CryptoAuthenticationLibrary/atca_iface.o
 .debug_loc     0x0000000000005d37       0x3a build/AWS_IOT/production/mcc_generated_files/drivers/spi_master.o
 .debug_loc     0x0000000000005d71      0x864 build/AWS_IOT/production/mcc_generated_files/drivers/timeout.o
 .debug_loc     0x00000000000065d5      0x512 build/AWS_IOT/production/mcc_generated_files/drivers/i2c_simple_master.o
 .debug_loc     0x0000000000006ae7      0x11e build/AWS_IOT/production/mcc_generated_files/mqtt/mqtt_comm_bsd/mqtt_comm_layer.o
 .debug_loc     0x0000000000006c05      0xacc build/AWS_IOT/production/mcc_generated_files/mqtt/mqtt_core/mqtt_core.o
 .debug_loc     0x00000000000076d1      0x30b build/AWS_IOT/production/mcc_generated_files/mqtt/mqtt_exchange_buffer/mqtt_exchange_buffer.o
 .debug_loc     0x00000000000079dc     0x178a build/AWS_IOT/production/mcc_generated_files/mqtt/mqtt_winc_adapter.o
 .debug_loc     0x0000000000009166       0x78 build/AWS_IOT/production/mcc_generated_files/src/pin_manager.o
 .debug_loc     0x00000000000091de       0x2a build/AWS_IOT/production/mcc_generated_files/src/cpuint.o
 .debug_loc     0x0000000000009208      0x27a build/AWS_IOT/production/mcc_generated_files/src/spi0.o
 .debug_loc     0x0000000000009482      0x507 build/AWS_IOT/production/mcc_generated_files/src/twi0_master.o
 .debug_loc     0x0000000000009989       0xa2 build/AWS_IOT/production/mcc_generated_files/src/adc0.o
 .debug_loc     0x0000000000009a2b      0x123 build/AWS_IOT/production/mcc_generated_files/src/usart2.o
 .debug_loc     0x0000000000009b4e      0x913 build/AWS_IOT/production/mcc_generated_files/winc/driver/winc_spi.o
 .debug_loc     0x000000000000a461      0x1d3 build/AWS_IOT/production/mcc_generated_files/winc/driver/winc_adapter.o
 .debug_loc     0x000000000000a634      0x404 build/AWS_IOT/production/mcc_generated_files/winc/driver/winc_hif.o
 .debug_loc     0x000000000000aa38      0x1ee build/AWS_IOT/production/mcc_generated_files/winc/driver/winc_asic.o
 .debug_loc     0x000000000000ac26       0x9a build/AWS_IOT/production/mcc_generated_files/winc/driver/winc_drv.o
 .debug_loc     0x000000000000acc0      0x7c1 build/AWS_IOT/production/mcc_generated_files/winc/m2m/m2m_ssl.o
 .debug_loc     0x000000000000b481     0x240e build/AWS_IOT/production/mcc_generated_files/winc/m2m/m2m_wifi.o
 .debug_loc     0x000000000000d88f      0x228 build/AWS_IOT/production/mcc_generated_files/winc/m2m/m2m_fwinfo.o
 .debug_loc     0x000000000000dab7     0x2173 build/AWS_IOT/production/mcc_generated_files/winc/socket/socket.o
 .debug_loc     0x000000000000fc2a      0x732 build/AWS_IOT/production/mcc_generated_files/winc/spi_flash/spi_flash.o
 .debug_loc     0x000000000001035c      0x172 build/AWS_IOT/production/mcc_generated_files/mcc.o
 .debug_loc     0x00000000000104ce      0x15e build/AWS_IOT/production/mcc_generated_files/delay.o
 .debug_loc     0x000000000001062c      0x1f2 build/AWS_IOT/production/mcc_generated_files/application_manager.o
 .debug_loc     0x000000000001081e       0xb8 build/AWS_IOT/production/mcc_generated_files/debug_print.o
 .debug_loc     0x00000000000108d6      0x1fe build/AWS_IOT/production/mcc_generated_files/led.o
 .debug_loc     0x0000000000010ad4       0x43 build/AWS_IOT/production/mcc_generated_files/sensors_handling.o
 .debug_loc     0x0000000000010b17      0x13f build/AWS_IOT/production/mcc_generated_files/time_service.o
 .debug_loc     0x0000000000010c56       0x1e build/AWS_IOT/production/mcc_generated_files/CryptoAuthenticationLibrary/CryptoAuth_init.o

.debug_macinfo
 *(.debug_macinfo)

.debug_weaknames
 *(.debug_weaknames)

.debug_funcnames
 *(.debug_funcnames)

.debug_typenames
 *(.debug_typenames)

.debug_varnames
 *(.debug_varnames)

.debug_pubtypes
 *(.debug_pubtypes)

.debug_ranges   0x0000000000000000     0x17d8
 *(.debug_ranges)
 .debug_ranges  0x0000000000000000       0x98 build/AWS_IOT/production/mcc_generated_files/cli/cli.o
 .debug_ranges  0x0000000000000098       0x60 build/AWS_IOT/production/mcc_generated_files/cloud/crypto_client/crypto_client.o
 .debug_ranges  0x00000000000000f8       0x90 build/AWS_IOT/production/mcc_generated_files/cloud/cloud_service.o
 .debug_ranges  0x0000000000000188       0x60 build/AWS_IOT/production/mcc_generated_files/cloud/wifi_service.o
 .debug_ranges  0x00000000000001e8       0x40 build/AWS_IOT/production/mcc_generated_files/cloud/mqtt_service.o
 .debug_ranges  0x0000000000000228       0x50 build/AWS_IOT/production/mcc_generated_files/cloud/aws_cloud_service.o
 .debug_ranges  0x0000000000000278       0x10 build/AWS_IOT/production/mcc_generated_files/credentials_storage/credentials_storage.o
 .debug_ranges  0x0000000000000288       0x70 build/AWS_IOT/production/mcc_generated_files/CryptoAuthenticationLibrary/basic/atca_basic.o
 .debug_ranges  0x00000000000002f8       0x38 build/AWS_IOT/production/mcc_generated_files/CryptoAuthenticationLibrary/basic/atca_basic_ecdh.o
 .debug_ranges  0x0000000000000330       0x20 build/AWS_IOT/production/mcc_generated_files/CryptoAuthenticationLibrary/basic/atca_basic_genkey.o
 .debug_ranges  0x0000000000000350       0x38 build/AWS_IOT/production/mcc_generated_files/CryptoAuthenticationLibrary/basic/atca_basic_lock.o
 .debug_ranges  0x0000000000000388       0x38 build/AWS_IOT/production/mcc_generated_files/CryptoAuthenticationLibrary/basic/atca_basic_nonce.o
 .debug_ranges  0x00000000000003c0       0x10 build/AWS_IOT/production/mcc_generated_files/CryptoAuthenticationLibrary/basic/atca_basic_random.o
 .debug_ranges  0x00000000000003d0       0x58 build/AWS_IOT/production/mcc_generated_files/CryptoAuthenticationLibrary/basic/atca_basic_read.o
 .debug_ranges  0x0000000000000428       0x20 build/AWS_IOT/production/mcc_generated_files/CryptoAuthenticationLibrary/basic/atca_basic_sign.o
 .debug_ranges  0x0000000000000448       0x48 build/AWS_IOT/production/mcc_generated_files/CryptoAuthenticationLibrary/basic/atca_basic_verify.o
 .debug_ranges  0x0000000000000490       0x20 build/AWS_IOT/production/mcc_generated_files/CryptoAuthenticationLibrary/hal/atca_hal.o
 .debug_ranges  0x00000000000004b0       0x58 build/AWS_IOT/production/mcc_generated_files/CryptoAuthenticationLibrary/hal/atca_i2c_hal.o
 .debug_ranges  0x0000000000000508       0x18 build/AWS_IOT/production/mcc_generated_files/CryptoAuthenticationLibrary/hal/hal_i2c_timer.o
 .debug_ranges  0x0000000000000520      0x100 build/AWS_IOT/production/mcc_generated_files/CryptoAuthenticationLibrary/atca_command.o
 .debug_ranges  0x0000000000000620       0x28 build/AWS_IOT/production/mcc_generated_files/CryptoAuthenticationLibrary/atca_device.o
 .debug_ranges  0x0000000000000648       0x18 build/AWS_IOT/production/mcc_generated_files/CryptoAuthenticationLibrary/atca_execution.o
 .debug_ranges  0x0000000000000660       0x60 build/AWS_IOT/production/mcc_generated_files/CryptoAuthenticationLibrary/atca_iface.o
 .debug_ranges  0x00000000000006c0       0x18 build/AWS_IOT/production/mcc_generated_files/drivers/spi_master.o
 .debug_ranges  0x00000000000006d8       0xd0 build/AWS_IOT/production/mcc_generated_files/drivers/timeout.o
 .debug_ranges  0x00000000000007a8       0x68 build/AWS_IOT/production/mcc_generated_files/drivers/i2c_simple_master.o
 .debug_ranges  0x0000000000000810       0x38 build/AWS_IOT/production/mcc_generated_files/mqtt/mqtt_comm_bsd/mqtt_comm_layer.o
 .debug_ranges  0x0000000000000848       0xb8 build/AWS_IOT/production/mcc_generated_files/mqtt/mqtt_core/mqtt_core.o
 .debug_ranges  0x0000000000000900       0x28 build/AWS_IOT/production/mcc_generated_files/mqtt/mqtt_exchange_buffer/mqtt_exchange_buffer.o
 .debug_ranges  0x0000000000000928       0x18 build/AWS_IOT/production/mcc_generated_files/mqtt/mqtt_packetTransfer_interface.o
 .debug_ranges  0x0000000000000940       0xe8 build/AWS_IOT/production/mcc_generated_files/mqtt/mqtt_winc_adapter.o
 .debug_ranges  0x0000000000000a28      0x150 build/AWS_IOT/production/mcc_generated_files/src/pin_manager.o
 .debug_ranges  0x0000000000000b78       0x10 build/AWS_IOT/production/mcc_generated_files/src/cpuint.o
 .debug_ranges  0x0000000000000b88       0x88 build/AWS_IOT/production/mcc_generated_files/src/spi0.o
 .debug_ranges  0x0000000000000c10       0x90 build/AWS_IOT/production/mcc_generated_files/src/rtc.o
 .debug_ranges  0x0000000000000ca0      0x1e8 build/AWS_IOT/production/mcc_generated_files/src/twi0_master.o
 .debug_ranges  0x0000000000000e88       0x98 build/AWS_IOT/production/mcc_generated_files/src/adc0.o
 .debug_ranges  0x0000000000000f20       0xb0 build/AWS_IOT/production/mcc_generated_files/src/usart2.o
 .debug_ranges  0x0000000000000fd0       0x88 build/AWS_IOT/production/mcc_generated_files/winc/driver/winc_spi.o
 .debug_ranges  0x0000000000001058       0x78 build/AWS_IOT/production/mcc_generated_files/winc/driver/winc_adapter.o
 .debug_ranges  0x00000000000010d0       0x58 build/AWS_IOT/production/mcc_generated_files/winc/driver/winc_hif.o
 .debug_ranges  0x0000000000001128       0x58 build/AWS_IOT/production/mcc_generated_files/winc/driver/winc_asic.o
 .debug_ranges  0x0000000000001180       0x20 build/AWS_IOT/production/mcc_generated_files/winc/driver/winc_drv.o
 .debug_ranges  0x00000000000011a0       0x70 build/AWS_IOT/production/mcc_generated_files/winc/m2m/m2m_ssl.o
 .debug_ranges  0x0000000000001210      0x298 build/AWS_IOT/production/mcc_generated_files/winc/m2m/m2m_wifi.o
 .debug_ranges  0x00000000000014a8       0x18 build/AWS_IOT/production/mcc_generated_files/winc/m2m/m2m_fwinfo.o
 .debug_ranges  0x00000000000014c0      0x118 build/AWS_IOT/production/mcc_generated_files/winc/socket/socket.o
 .debug_ranges  0x00000000000015d8       0x50 build/AWS_IOT/production/mcc_generated_files/winc/spi_flash/spi_flash.o
 .debug_ranges  0x0000000000001628       0x38 build/AWS_IOT/production/mcc_generated_files/mcc.o
 .debug_ranges  0x0000000000001660       0x18 build/AWS_IOT/production/mcc_generated_files/delay.o
 .debug_ranges  0x0000000000001678       0x60 build/AWS_IOT/production/mcc_generated_files/application_manager.o
 .debug_ranges  0x00000000000016d8       0x28 build/AWS_IOT/production/mcc_generated_files/debug_print.o
 .debug_ranges  0x0000000000001700       0x40 build/AWS_IOT/production/mcc_generated_files/led.o
 .debug_ranges  0x0000000000001740       0x18 build/AWS_IOT/production/mcc_generated_files/sensors_handling.o
 .debug_ranges  0x0000000000001758       0x60 build/AWS_IOT/production/mcc_generated_files/time_service.o
 .debug_ranges  0x00000000000017b8       0x10 build/AWS_IOT/production/mcc_generated_files/CryptoAuthenticationLibrary/CryptoAuth_init.o
 .debug_ranges  0x00000000000017c8       0x10 build/AWS_IOT/production/main.o

.debug_macro
 *(.debug_macro)
OUTPUT(dist/AWS_IOT/production/AVRIoT.X.production.elf elf32-avr)
LOAD linker stubs
LOAD data_init

.note.gnu.avr.deviceinfo
                0x0000000000000000       0x40
 .note.gnu.avr.deviceinfo
                0x0000000000000000       0x40 /Applications/microchip/mplabx/v5.30/packs/Microchip/ATmega_DFP/2.0.12/gcc/dev/atmega4808/avrxmega3/crtatmega4808.o

.bss.test.6405  0x00000000008032a1        0x1
 .bss.test.6405
                0x00000000008032a1        0x1 build/AWS_IOT/production/mcc_generated_files/cli/cli.o

.bss.ateccsn    0x0000000000803263        0x2
 .bss.ateccsn   0x0000000000803263        0x2 build/AWS_IOT/production/mcc_generated_files/cli/cli.o

.bss.commandTooLongFlag
                0x00000000008032a2        0x1
 .bss.commandTooLongFlag
                0x00000000008032a2        0x1 build/AWS_IOT/production/mcc_generated_files/cli/cli.o

.bss.index      0x00000000008032a3        0x1
 .bss.index     0x00000000008032a3        0x1 build/AWS_IOT/production/mcc_generated_files/cli/cli.o

.bss.command    0x0000000000802e85       0x64
 .bss.command   0x0000000000802e85       0x64 build/AWS_IOT/production/mcc_generated_files/cli/cli.o

.bss.g_ecdh_key_slot_index
                0x0000000000803233        0x4
 .bss.g_ecdh_key_slot_index
                0x0000000000803233        0x4 build/AWS_IOT/production/mcc_generated_files/cloud/crypto_client/crypto_client.o

.bss.subscriptionTopicCount.5634
                0x00000000008032a4        0x1
 .bss.subscriptionTopicCount.5634
                0x00000000008032a4        0x1 build/AWS_IOT/production/mcc_generated_files/cloud/cloud_service.o

.bss.wifiConnectionStateChangedCallback
                0x0000000000803265        0x2
 .bss.wifiConnectionStateChangedCallback
                0x0000000000803265        0x2 build/AWS_IOT/production/mcc_generated_files/cloud/wifi_service.o
                0x0000000000803265                wifiConnectionStateChangedCallback

.bss.responseFromProvisionConnect
                0x00000000008032a5        0x1
 .bss.responseFromProvisionConnect
                0x00000000008032a5        0x1 build/AWS_IOT/production/mcc_generated_files/cloud/wifi_service.o

.bss.publishRecvInfo
                0x0000000000803267        0x2
 .bss.publishRecvInfo
                0x0000000000803267        0x2 build/AWS_IOT/production/mcc_generated_files/cloud/mqtt_service.o

.bss._gDevice   0x0000000000803269        0x2
 .bss._gDevice  0x0000000000803269        0x2 build/AWS_IOT/production/mcc_generated_files/CryptoAuthenticationLibrary/basic/atca_basic.o
                0x0000000000803269                _gDevice

.bss.i2c_address
                0x00000000008032a6        0x1
 .bss.i2c_address
                0x00000000008032a6        0x1 build/AWS_IOT/production/mcc_generated_files/CryptoAuthenticationLibrary/hal/atca_i2c_hal.o
                0x00000000008032a6                i2c_address

.bss.isRunning  0x00000000008032a7        0x1
 .bss.isRunning
                0x00000000008032a7        0x1 build/AWS_IOT/production/mcc_generated_files/drivers/timeout.o
                0x00000000008032a7                isRunning

.bss.lastTimerLoad
                0x000000000080323b        0x4
 .bss.lastTimerLoad
                0x000000000080323b        0x4 build/AWS_IOT/production/mcc_generated_files/drivers/timeout.o
                0x000000000080323b                lastTimerLoad

.bss.absoluteTimeofLastTimeout
                0x000000000080323f        0x4
 .bss.absoluteTimeofLastTimeout
                0x000000000080323f        0x4 build/AWS_IOT/production/mcc_generated_files/drivers/timeout.o
                0x000000000080323f                absoluteTimeofLastTimeout

.bss.executeQueueHead
                0x000000000080326b        0x2
 .bss.executeQueueHead
                0x000000000080326b        0x2 build/AWS_IOT/production/mcc_generated_files/drivers/timeout.o
                0x000000000080326b                executeQueueHead

.bss.listHead   0x000000000080326d        0x2
 .bss.listHead  0x000000000080326d        0x2 build/AWS_IOT/production/mcc_generated_files/drivers/timeout.o
                0x000000000080326d                listHead

.bss.lastSentSize
                0x000000000080326f        0x2
 .bss.lastSentSize
                0x000000000080326f        0x2 build/AWS_IOT/production/mcc_generated_files/mqtt/mqtt_comm_bsd/mqtt_comm_layer.o

.bss.mqttRxBuff
                0x000000000080295c      0x190
 .bss.mqttRxBuff
                0x000000000080295c      0x190 build/AWS_IOT/production/mcc_generated_files/mqtt/mqtt_comm_bsd/mqtt_comm_layer.o

.bss.mqttTxBuff
                0x0000000000802aec      0x190
 .bss.mqttTxBuff
                0x0000000000802aec      0x190 build/AWS_IOT/production/mcc_generated_files/mqtt/mqtt_comm_bsd/mqtt_comm_layer.o

.bss.mqttConn   0x0000000000803124       0x12
 .bss.mqttConn  0x0000000000803124       0x12 build/AWS_IOT/production/mcc_generated_files/mqtt/mqtt_comm_bsd/mqtt_comm_layer.o

.bss.mqttState  0x00000000008032a9        0x1
 .bss.mqttState
                0x00000000008032a9        0x1 build/AWS_IOT/production/mcc_generated_files/mqtt/mqtt_core/mqtt_core.o

.bss.lastReceivedLength
                0x0000000000803271        0x2
 .bss.lastReceivedLength
                0x0000000000803271        0x2 build/AWS_IOT/production/mcc_generated_files/mqtt/mqtt_core/mqtt_core.o

.bss.lastReceivedPacketHeader
                0x00000000008032aa        0x1
 .bss.lastReceivedPacketHeader
                0x00000000008032aa        0x1 build/AWS_IOT/production/mcc_generated_files/mqtt/mqtt_core/mqtt_core.o

.bss.lastMQTTHandlerState
                0x00000000008032ab        0x1
 .bss.lastMQTTHandlerState
                0x00000000008032ab        0x1 build/AWS_IOT/production/mcc_generated_files/mqtt/mqtt_core/mqtt_core.o

.bss.mqttTimeouts
                0x00000000008032ac        0x1
 .bss.mqttTimeouts
                0x00000000008032ac        0x1 build/AWS_IOT/production/mcc_generated_files/mqtt/mqtt_core/mqtt_core.o

.bss.txUnsubscribePacket
                0x0000000000803172        0xd
 .bss.txUnsubscribePacket
                0x0000000000803172        0xd build/AWS_IOT/production/mcc_generated_files/mqtt/mqtt_core/mqtt_core.o

.bss.txSubscribePacket
                0x0000000000803156        0xe
 .bss.txSubscribePacket
                0x0000000000803156        0xe build/AWS_IOT/production/mcc_generated_files/mqtt/mqtt_core/mqtt_core.o

.bss.txPublishPacket
                0x0000000000803146       0x10
 .bss.txPublishPacket
                0x0000000000803146       0x10 build/AWS_IOT/production/mcc_generated_files/mqtt/mqtt_core/mqtt_core.o

.bss.txConnectPacket
                0x00000000008030ca       0x1d
 .bss.txConnectPacket
                0x00000000008030ca       0x1d build/AWS_IOT/production/mcc_generated_files/mqtt/mqtt_core/mqtt_core.o

.bss.mqttRxFlags
                0x00000000008032ad        0x1
 .bss.mqttRxFlags
                0x00000000008032ad        0x1 build/AWS_IOT/production/mcc_generated_files/mqtt/mqtt_core/mqtt_core.o

.bss.mqttTxFlags
                0x00000000008032ae        0x1
 .bss.mqttTxFlags
                0x00000000008032ae        0x1 build/AWS_IOT/production/mcc_generated_files/mqtt/mqtt_core/mqtt_core.o

.bss.packetRecvInfo
                0x0000000000803273        0x2
 .bss.packetRecvInfo
                0x0000000000803273        0x2 build/AWS_IOT/production/mcc_generated_files/mqtt/mqtt_winc_adapter.o

.bss.bsdErrorNumber
                0x00000000008032af        0x1
 .bss.bsdErrorNumber
                0x00000000008032af        0x1 build/AWS_IOT/production/mcc_generated_files/mqtt/mqtt_winc_adapter.o

.bss.PORTF_WAKE_InterruptHandler
                0x0000000000803275        0x2
 .bss.PORTF_WAKE_InterruptHandler
                0x0000000000803275        0x2 build/AWS_IOT/production/mcc_generated_files/src/pin_manager.o

.bss.PORTF_SW1_InterruptHandler
                0x0000000000803277        0x2
 .bss.PORTF_SW1_InterruptHandler
                0x0000000000803277        0x2 build/AWS_IOT/production/mcc_generated_files/src/pin_manager.o

.bss.PORTF_INT_InterruptHandler
                0x0000000000803279        0x2
 .bss.PORTF_INT_InterruptHandler
                0x0000000000803279        0x2 build/AWS_IOT/production/mcc_generated_files/src/pin_manager.o

.bss.PORTF_CE_InterruptHandler
                0x000000000080327b        0x2
 .bss.PORTF_CE_InterruptHandler
                0x000000000080327b        0x2 build/AWS_IOT/production/mcc_generated_files/src/pin_manager.o

.bss.PORTF_PF0_InterruptHandler
                0x000000000080327d        0x2
 .bss.PORTF_PF0_InterruptHandler
                0x000000000080327d        0x2 build/AWS_IOT/production/mcc_generated_files/src/pin_manager.o

.bss.PORTF_PF1_InterruptHandler
                0x000000000080327f        0x2
 .bss.PORTF_PF1_InterruptHandler
                0x000000000080327f        0x2 build/AWS_IOT/production/mcc_generated_files/src/pin_manager.o

.bss.PORTF_SW0_InterruptHandler
                0x0000000000803281        0x2
 .bss.PORTF_SW0_InterruptHandler
                0x0000000000803281        0x2 build/AWS_IOT/production/mcc_generated_files/src/pin_manager.o

.bss.spi0_desc  0x00000000008032b0        0x1
 .bss.spi0_desc
                0x00000000008032b0        0x1 build/AWS_IOT/production/mcc_generated_files/src/spi0.o

.bss.RTC_PIT_isr_cb
                0x0000000000803283        0x2
 .bss.RTC_PIT_isr_cb
                0x0000000000803283        0x2 build/AWS_IOT/production/mcc_generated_files/src/rtc.o
                0x0000000000803283                RTC_PIT_isr_cb

.bss.RTC_CMP_isr_cb
                0x0000000000803285        0x2
 .bss.RTC_CMP_isr_cb
                0x0000000000803285        0x2 build/AWS_IOT/production/mcc_generated_files/src/rtc.o
                0x0000000000803285                RTC_CMP_isr_cb

.bss.RTC_OVF_isr_cb
                0x0000000000803287        0x2
 .bss.RTC_OVF_isr_cb
                0x0000000000803287        0x2 build/AWS_IOT/production/mcc_generated_files/src/rtc.o
                0x0000000000803287                RTC_OVF_isr_cb

.bss.I2C0_status
                0x00000000008030a6       0x24
 .bss.I2C0_status
                0x00000000008030a6       0x24 build/AWS_IOT/production/mcc_generated_files/src/twi0_master.o
                0x00000000008030a6                I2C0_status

.bss.ADC0_window_cb
                0x0000000000803289        0x2
 .bss.ADC0_window_cb
                0x0000000000803289        0x2 build/AWS_IOT/production/mcc_generated_files/src/adc0.o
                0x0000000000803289                ADC0_window_cb

.bss.USART2_tx_elements
                0x00000000008032b1        0x1
 .bss.USART2_tx_elements
                0x00000000008032b1        0x1 build/AWS_IOT/production/mcc_generated_files/src/usart2.o

.bss.USART2_tx_tail
                0x00000000008032b2        0x1
 .bss.USART2_tx_tail
                0x00000000008032b2        0x1 build/AWS_IOT/production/mcc_generated_files/src/usart2.o

.bss.USART2_tx_head
                0x00000000008032b3        0x1
 .bss.USART2_tx_head
                0x00000000008032b3        0x1 build/AWS_IOT/production/mcc_generated_files/src/usart2.o

.bss.USART2_txbuf
                0x0000000000802f89       0x40
 .bss.USART2_txbuf
                0x0000000000802f89       0x40 build/AWS_IOT/production/mcc_generated_files/src/usart2.o

.bss.USART2_rx_elements
                0x00000000008032b4        0x1
 .bss.USART2_rx_elements
                0x00000000008032b4        0x1 build/AWS_IOT/production/mcc_generated_files/src/usart2.o

.bss.USART2_rx_tail
                0x00000000008032b5        0x1
 .bss.USART2_rx_tail
                0x00000000008032b5        0x1 build/AWS_IOT/production/mcc_generated_files/src/usart2.o

.bss.USART2_rx_head
                0x00000000008032b6        0x1
 .bss.USART2_rx_head
                0x00000000008032b6        0x1 build/AWS_IOT/production/mcc_generated_files/src/usart2.o

.bss.USART2_rxbuf
                0x0000000000802fc9       0x40
 .bss.USART2_rxbuf
                0x0000000000802fc9       0x40 build/AWS_IOT/production/mcc_generated_files/src/usart2.o

.bss.serviceRequest
                0x00000000008032b8        0x1
 .bss.serviceRequest
                0x00000000008032b8        0x1 build/AWS_IOT/production/mcc_generated_files/winc/driver/winc_adapter.o

.bss.gbChipPwrSave
                0x00000000008032b9        0x1
 .bss.gbChipPwrSave
                0x00000000008032b9        0x1 build/AWS_IOT/production/mcc_generated_files/winc/driver/winc_hif.o

.bss.gu16RxSize
                0x000000000080328f        0x2
 .bss.gu16RxSize
                0x000000000080328f        0x2 build/AWS_IOT/production/mcc_generated_files/winc/driver/winc_hif.o

.bss.gu32RxAddr
                0x0000000000803247        0x4
 .bss.gu32RxAddr
                0x0000000000803247        0x4 build/AWS_IOT/production/mcc_generated_files/winc/driver/winc_hif.o

.bss.gu8ChipSleep
                0x00000000008032ba        0x1
 .bss.gu8ChipSleep
                0x00000000008032ba        0x1 build/AWS_IOT/production/mcc_generated_files/winc/driver/winc_hif.o

.bss.gu32ChipID.3383
                0x000000000080324b        0x4
 .bss.gu32ChipID.3383
                0x000000000080324b        0x4 build/AWS_IOT/production/mcc_generated_files/winc/driver/winc_asic.o

.bss.gu32HIFAddr
                0x000000000080324f        0x4
 .bss.gu32HIFAddr
                0x000000000080324f        0x4 build/AWS_IOT/production/mcc_generated_files/winc/m2m/m2m_ssl.o

.bss.gpfAppSSLCb
                0x0000000000803291        0x2
 .bss.gpfAppSSLCb
                0x0000000000803291        0x2 build/AWS_IOT/production/mcc_generated_files/winc/m2m/m2m_ssl.o

.bss.gu8scanInProgress
                0x00000000008032bc        0x1
 .bss.gu8scanInProgress
                0x00000000008032bc        0x1 build/AWS_IOT/production/mcc_generated_files/winc/m2m/m2m_wifi.o

.bss.gpfAppWifiCb
                0x0000000000803293        0x2
 .bss.gpfAppWifiCb
                0x0000000000803293        0x2 build/AWS_IOT/production/mcc_generated_files/winc/m2m/m2m_wifi.o

.bss.gu8WifiState
                0x00000000008032bd        0x1
 .bss.gu8WifiState
                0x00000000008032bd        0x1 build/AWS_IOT/production/mcc_generated_files/winc/m2m/m2m_wifi.o

.bss.gu8ChNum   0x00000000008032be        0x1
 .bss.gu8ChNum  0x00000000008032be        0x1 build/AWS_IOT/production/mcc_generated_files/winc/m2m/m2m_wifi.o

.bss.u8NextUdpSock.3538
                0x00000000008032bf        0x1
 .bss.u8NextUdpSock.3538
                0x00000000008032bf        0x1 build/AWS_IOT/production/mcc_generated_files/winc/socket/socket.o

.bss.u8NextTcpSock.3537
                0x00000000008032c0        0x1
 .bss.u8NextTcpSock.3537
                0x00000000008032c0        0x1 build/AWS_IOT/production/mcc_generated_files/winc/socket/socket.o

.bss.gu32PingId
                0x0000000000803253        0x4
 .bss.gu32PingId
                0x0000000000803253        0x4 build/AWS_IOT/production/mcc_generated_files/winc/socket/socket.o

.bss.gfpPingCb  0x0000000000803295        0x2
 .bss.gfpPingCb
                0x0000000000803295        0x2 build/AWS_IOT/production/mcc_generated_files/winc/socket/socket.o

.bss.gbSocketInit
                0x00000000008032c1        0x1
 .bss.gbSocketInit
                0x00000000008032c1        0x1 build/AWS_IOT/production/mcc_generated_files/winc/socket/socket.o

.bss.gpfAppResolveCb
                0x0000000000803297        0x2
 .bss.gpfAppResolveCb
                0x0000000000803297        0x2 build/AWS_IOT/production/mcc_generated_files/winc/socket/socket.o

.bss.gpfAppSocketCb
                0x0000000000803299        0x2
 .bss.gpfAppSocketCb
                0x0000000000803299        0x2 build/AWS_IOT/production/mcc_generated_files/winc/socket/socket.o

.bss.gu16SessionID
                0x000000000080329b        0x2
 .bss.gu16SessionID
                0x000000000080329b        0x2 build/AWS_IOT/production/mcc_generated_files/winc/socket/socket.o

.bss.gastrSockets
                0x0000000000802e0c       0x79
 .bss.gastrSockets
                0x0000000000802e0c       0x79 build/AWS_IOT/production/mcc_generated_files/winc/socket/socket.o

.bss.json.7015  0x0000000000802c7c       0xc8
 .bss.json.7015
                0x0000000000802c7c       0xc8 build/AWS_IOT/production/mcc_generated_files/application_manager.o

.bss.publishMqttTopic.7016
                0x0000000000802ee9       0x50
 .bss.publishMqttTopic.7016
                0x0000000000802ee9       0x50 build/AWS_IOT/production/mcc_generated_files/application_manager.o

.bss.previousTransmissionTime.7054
                0x0000000000803257        0x4
 .bss.previousTransmissionTime.7054
                0x0000000000803257        0x4 build/AWS_IOT/production/mcc_generated_files/application_manager.o

.bss.holdCount  0x00000000008032c2        0x1
 .bss.holdCount
                0x00000000008032c2        0x1 build/AWS_IOT/production/mcc_generated_files/application_manager.o

.bss.shadowPayload
                0x0000000000802d44       0xc8
 .bss.shadowPayload
                0x0000000000802d44       0xc8 build/AWS_IOT/production/mcc_generated_files/application_manager.o

.bss.shadowTopic
                0x0000000000802f39       0x50
 .bss.shadowTopic
                0x0000000000802f39       0x50 build/AWS_IOT/production/mcc_generated_files/application_manager.o

.bss.toggleDebounce
                0x00000000008032c3        0x1
 .bss.toggleDebounce
                0x00000000008032c3        0x1 build/AWS_IOT/production/mcc_generated_files/application_manager.o

.bss.toggleState
                0x00000000008032c4        0x1
 .bss.toggleState
                0x00000000008032c4        0x1 build/AWS_IOT/production/mcc_generated_files/application_manager.o

.bss.debug_severity_filter
                0x00000000008032c5        0x1
 .bss.debug_severity_filter
                0x00000000008032c5        0x1 build/AWS_IOT/production/mcc_generated_files/debug_print.o

.bss.blueTicker
                0x00000000008032ca        0x1
 .bss.blueTicker
                0x00000000008032ca        0x1 build/AWS_IOT/production/mcc_generated_files/led.o

.bss.greenTicker
                0x00000000008032cb        0x1
 .bss.greenTicker
                0x00000000008032cb        0x1 build/AWS_IOT/production/mcc_generated_files/led.o

.bss.yellowTicker
                0x00000000008032cc        0x1
 .bss.yellowTicker
                0x00000000008032cc        0x1 build/AWS_IOT/production/mcc_generated_files/led.o

.bss.redTicker  0x00000000008032cd        0x1
 .bss.redTicker
                0x00000000008032cd        0x1 build/AWS_IOT/production/mcc_generated_files/led.o

.bss.blueLed_2SecLoop
                0x00000000008032ce        0x1
 .bss.blueLed_2SecLoop
                0x00000000008032ce        0x1 build/AWS_IOT/production/mcc_generated_files/led.o

.bss.greenLed_2SecLoop
                0x00000000008032cf        0x1
 .bss.greenLed_2SecLoop
                0x00000000008032cf        0x1 build/AWS_IOT/production/mcc_generated_files/led.o

.bss.yellowLed_2SecLoop
                0x00000000008032d0        0x1
 .bss.yellowLed_2SecLoop
                0x00000000008032d0        0x1 build/AWS_IOT/production/mcc_generated_files/led.o

.bss.redLed_2SecLoop
                0x00000000008032d1        0x1
 .bss.redLed_2SecLoop
                0x00000000008032d1        0x1 build/AWS_IOT/production/mcc_generated_files/led.o

.bss.stampTime  0x000000000080325b        0x4
 .bss.stampTime
                0x000000000080325b        0x4 build/AWS_IOT/production/mcc_generated_files/time_service.o

.bss.currentTime
                0x000000000080325f        0x4
 .bss.currentTime
                0x000000000080325f        0x4 build/AWS_IOT/production/mcc_generated_files/time_service.o

.bss            0x000000000080329d        0x2
 .bss           0x000000000080329d        0x2 /Applications/microchip/xc8/v2.10/avr/bin/../lib/gcc/avr/5.4.0/../../../../avr/lib/avrxmega3/libc.a(strtok.o)

.progmemx.data  0x00000000000012ae       0x3b
 .progmemx.data
                0x00000000000012ae       0x3b /Applications/microchip/xc8/v2.10/avr/bin/../lib/gcc/avr/5.4.0/../../../../avr/lib/avrxmega3/libc.a(asctime_r.o)
                0x00000000000012ae                ascdays
                0x00000000000012c4                ascmonths

.data.mqqtSocket
                0x00000000008032a8        0x1 load address 0x00000000000012e9
 .data.mqqtSocket
                0x00000000008032a8        0x1 build/AWS_IOT/production/mcc_generated_files/mqtt/mqtt_comm_bsd/mqtt_comm_layer.o

.text.MQTT_TransmissionHandler
                0x00000000000012ea      0x560
 .text.MQTT_TransmissionHandler
                0x00000000000012ea      0x560 build/AWS_IOT/production/mcc_generated_files/mqtt/mqtt_core/mqtt_core.o
                0x00000000000012ea                MQTT_TransmissionHandler

.text.m2m_ip_cb
                0x000000000000184a      0x510
 .text.m2m_ip_cb
                0x000000000000184a      0x510 build/AWS_IOT/production/mcc_generated_files/winc/socket/socket.o
                0x000000000000184a                m2m_ip_cb

.text.cloudTask
                0x0000000000001d5a      0x444
 .text.cloudTask
                0x0000000000001d5a      0x444 build/AWS_IOT/production/mcc_generated_files/cloud/cloud_service.o
                0x0000000000001d5a                cloudTask

.text.MQTT_ReceptionHandler
                0x000000000000219e      0x3ec
 .text.MQTT_ReceptionHandler
                0x000000000000219e      0x3ec build/AWS_IOT/production/mcc_generated_files/mqtt/mqtt_core/mqtt_core.o
                0x000000000000219e                MQTT_ReceptionHandler

.text.avrlibc   0x000000000000258a      0x3c2
 .text.avrlibc  0x000000000000258a      0x3c2 /Applications/microchip/xc8/v2.10/avr/bin/../lib/gcc/avr/5.4.0/../../../../avr/lib/avrxmega3/libc.a(vfprintf_std.o)
                0x000000000000258a                vfprintf

.text.LED_service
                0x000000000000294c      0x2f2
 .text.LED_service
                0x000000000000294c      0x2f2 build/AWS_IOT/production/mcc_generated_files/led.o

.text.application_init
                0x0000000000002c3e      0x282
 .text.application_init
                0x0000000000002c3e      0x282 build/AWS_IOT/production/mcc_generated_files/application_manager.o
                0x0000000000002c3e                application_init

.text.m2m_ssl_retrieve_cert
                0x0000000000002ec0      0x272
 .text.m2m_ssl_retrieve_cert
                0x0000000000002ec0      0x272 build/AWS_IOT/production/mcc_generated_files/winc/m2m/m2m_ssl.o
                0x0000000000002ec0                m2m_ssl_retrieve_cert

.text.winc_chip_init
                0x0000000000003132      0x224
 .text.winc_chip_init
                0x0000000000003132      0x224 build/AWS_IOT/production/mcc_generated_files/winc/driver/winc_asic.o
                0x0000000000003132                winc_chip_init

.text.wifiCallback
                0x0000000000003356      0x202
 .text.wifiCallback
                0x0000000000003356      0x202 build/AWS_IOT/production/mcc_generated_files/cloud/wifi_service.o

.text.winc_hif_send
                0x0000000000003558      0x1e6
 .text.winc_hif_send
                0x0000000000003558      0x1e6 build/AWS_IOT/production/mcc_generated_files/winc/driver/winc_hif.o
                0x0000000000003558                winc_hif_send

.text.sortedInsert
                0x000000000000373e      0x1e2
 .text.sortedInsert
                0x000000000000373e      0x1e2 build/AWS_IOT/production/mcc_generated_files/drivers/timeout.o
                0x000000000000373e                sortedInsert

.text.mqttProcessPublish
                0x0000000000003920      0x1d2
 .text.mqttProcessPublish
                0x0000000000003920      0x1d2 build/AWS_IOT/production/mcc_generated_files/mqtt/mqtt_core/mqtt_core.o

.text.atcab_read_bytes_zone
                0x0000000000003af2      0x1b8
 .text.atcab_read_bytes_zone
                0x0000000000003af2      0x1b8 build/AWS_IOT/production/mcc_generated_files/CryptoAuthenticationLibrary/basic/atca_basic_read.o
                0x0000000000003af2                atcab_read_bytes_zone

.text.CLOUD_connectSocket
                0x0000000000003caa      0x1a6
 .text.CLOUD_connectSocket
                0x0000000000003caa      0x1a6 build/AWS_IOT/production/mcc_generated_files/cloud/aws_cloud_service.o
                0x0000000000003caa                CLOUD_connectSocket

.text.set_wifi_auth
                0x0000000000003e50      0x19c
 .text.set_wifi_auth
                0x0000000000003e50      0x19c build/AWS_IOT/production/mcc_generated_files/cli/cli.o

.text.socket    0x0000000000003fec      0x19c
 .text.socket   0x0000000000003fec      0x19c build/AWS_IOT/production/mcc_generated_files/winc/socket/socket.o
                0x0000000000003fec                socket

.text           0x0000000000004188      0x18e
 .text          0x0000000000004188      0x18e /Applications/microchip/xc8/v2.10/avr/bin/../lib/gcc/avr/5.4.0/../../../../avr/lib/avrxmega3/libc.a(gmtime_r.o)
                0x0000000000004188                gmtime_r

.text.MAIN_dataTask
                0x0000000000004316      0x184
 .text.MAIN_dataTask
                0x0000000000004316      0x184 build/AWS_IOT/production/mcc_generated_files/application_manager.o
                0x0000000000004316                MAIN_dataTask

.text.m2m_ssl_cb
                0x000000000000449a      0x180
 .text.m2m_ssl_cb
                0x000000000000449a      0x180 build/AWS_IOT/production/mcc_generated_files/winc/m2m/m2m_ssl.o
                0x000000000000449a                m2m_ssl_cb

.text.m2m_wifi_connect_1x_mschap2
                0x000000000000461a      0x17e
 .text.m2m_wifi_connect_1x_mschap2
                0x000000000000461a      0x17e build/AWS_IOT/production/mcc_generated_files/winc/m2m/m2m_wifi.o
                0x000000000000461a                m2m_wifi_connect_1x_mschap2

.text.CLI_task  0x0000000000004798      0x170
 .text.CLI_task
                0x0000000000004798      0x170 build/AWS_IOT/production/mcc_generated_files/cli/cli.o
                0x0000000000004798                CLI_task

.text.winc_hif_handle_isr
                0x0000000000004908      0x16c
 .text.winc_hif_handle_isr
                0x0000000000004908      0x16c build/AWS_IOT/production/mcc_generated_files/winc/driver/winc_hif.o
                0x0000000000004908                winc_hif_handle_isr

.text.CRYPTO_CLIENT_processEccRequest
                0x0000000000004a74      0x15e
 .text.CRYPTO_CLIENT_processEccRequest
                0x0000000000004a74      0x15e build/AWS_IOT/production/mcc_generated_files/cloud/crypto_client/crypto_client.o
                0x0000000000004a74                CRYPTO_CLIENT_processEccRequest

.text.spi_flash_read_internal
                0x0000000000004bd2      0x156
 .text.spi_flash_read_internal
                0x0000000000004bd2      0x156 build/AWS_IOT/production/mcc_generated_files/winc/spi_flash/spi_flash.o

.text           0x0000000000004d28      0x156
 .text          0x0000000000004d28      0x156 /Applications/microchip/xc8/v2.10/avr/bin/../lib/gcc/avr/5.4.0/../../../../avr/lib/avrxmega3/libc.a(mk_gmtime.o)
                0x0000000000004d28                mk_gmtime

.text.m2m_wifi_connect_sc
                0x0000000000004e7e      0x152
 .text.m2m_wifi_connect_sc
                0x0000000000004e7e      0x152 build/AWS_IOT/production/mcc_generated_files/winc/m2m/m2m_wifi.o
                0x0000000000004e7e                m2m_wifi_connect_sc

.text.PIN_MANAGER_Initialize
                0x0000000000004fd0      0x150
 .text.PIN_MANAGER_Initialize
                0x0000000000004fd0      0x150 build/AWS_IOT/production/mcc_generated_files/src/pin_manager.o
                0x0000000000004fd0                PIN_MANAGER_Initialize

.text.ecdsa_process_sign_verify_request
                0x0000000000005120      0x14e
 .text.ecdsa_process_sign_verify_request
                0x0000000000005120      0x14e build/AWS_IOT/production/mcc_generated_files/cloud/crypto_client/crypto_client.o
                0x0000000000005120                ecdsa_process_sign_verify_request

.text.cloudResetTask
                0x000000000000526e      0x142
 .text.cloudResetTask
                0x000000000000526e      0x142 build/AWS_IOT/production/mcc_generated_files/cloud/cloud_service.o
                0x000000000000526e                cloudResetTask

.text.atcab_verify
                0x00000000000053b0      0x138
 .text.atcab_verify
                0x00000000000053b0      0x138 build/AWS_IOT/production/mcc_generated_files/CryptoAuthenticationLibrary/basic/atca_basic_verify.o
                0x00000000000053b0                atcab_verify

.text.winc_chip_get_id
                0x00000000000054e8      0x138
 .text.winc_chip_get_id
                0x00000000000054e8      0x138 build/AWS_IOT/production/mcc_generated_files/winc/driver/winc_asic.o
                0x00000000000054e8                winc_chip_get_id

.text.m2m_wifi_cb
                0x0000000000005620      0x134
 .text.m2m_wifi_cb
                0x0000000000005620      0x134 build/AWS_IOT/production/mcc_generated_files/winc/m2m/m2m_wifi.o
                0x0000000000005620                m2m_wifi_cb

.text.winc_bus_write_block
                0x0000000000005754      0x11c
 .text.winc_bus_write_block
                0x0000000000005754      0x11c build/AWS_IOT/production/mcc_generated_files/winc/driver/winc_spi.o
                0x0000000000005754                winc_bus_write_block

.text.MQTT_CreateConnectPacket
                0x0000000000005870      0x116
 .text.MQTT_CreateConnectPacket
                0x0000000000005870      0x116 build/AWS_IOT/production/mcc_generated_files/mqtt/mqtt_core/mqtt_core.o
                0x0000000000005870                MQTT_CreateConnectPacket

.text.recv      0x0000000000005986      0x10c
 .text.recv     0x0000000000005986      0x10c build/AWS_IOT/production/mcc_generated_files/winc/socket/socket.o
                0x0000000000005986                recv

.text.send      0x0000000000005a92      0x100
 .text.send     0x0000000000005a92      0x100 build/AWS_IOT/production/mcc_generated_files/winc/socket/socket.o
                0x0000000000005a92                send

.text.MQTT_CreatePublishPacket
                0x0000000000005b92       0xfc
 .text.MQTT_CreatePublishPacket
                0x0000000000005b92       0xfc build/AWS_IOT/production/mcc_generated_files/mqtt/mqtt_core/mqtt_core.o
                0x0000000000005b92                MQTT_CreatePublishPacket

.text.m2m_wifi_connect_psk
                0x0000000000005c8e       0xfc
 .text.m2m_wifi_connect_psk
                0x0000000000005c8e       0xfc build/AWS_IOT/production/mcc_generated_files/winc/m2m/m2m_wifi.o
                0x0000000000005c8e                m2m_wifi_connect_psk

.text           0x0000000000005d8a       0xfc
 .text          0x0000000000005d8a       0xfc /Applications/microchip/xc8/v2.10/avr/bin/../lib/gcc/avr/5.4.0/../../../../avr/lib/avrxmega3/libc.a(asctime_r.o)
                0x0000000000005d8a                asctime_r

.text.atca_execute_command
                0x0000000000005e86       0xf4
 .text.atca_execute_command
                0x0000000000005e86       0xf4 build/AWS_IOT/production/mcc_generated_files/CryptoAuthenticationLibrary/atca_execution.o
                0x0000000000005e86                atca_execute_command

.text.BSD_connect
                0x0000000000005f7a       0xf4
 .text.BSD_connect
                0x0000000000005f7a       0xf4 build/AWS_IOT/production/mcc_generated_files/mqtt/mqtt_winc_adapter.o
                0x0000000000005f7a                BSD_connect

.text.m2m_wifi_connect_prepare_msg
                0x000000000000606e       0xf0
 .text.m2m_wifi_connect_prepare_msg
                0x000000000000606e       0xf0 build/AWS_IOT/production/mcc_generated_files/winc/m2m/m2m_wifi.o

.text.ecdh_derive_client_shared_secret
                0x000000000000615e       0xea
 .text.ecdh_derive_client_shared_secret
                0x000000000000615e       0xea build/AWS_IOT/production/mcc_generated_files/cloud/crypto_client/crypto_client.o
                0x000000000000615e                ecdh_derive_client_shared_secret

.text.BSD_SocketHandler
                0x0000000000006248       0xe8
 .text.BSD_SocketHandler
                0x0000000000006248       0xe8 build/AWS_IOT/production/mcc_generated_files/mqtt/mqtt_winc_adapter.o
                0x0000000000006248                BSD_SocketHandler

.text.atcab_read_zone
                0x0000000000006330       0xde
 .text.atcab_read_zone
                0x0000000000006330       0xde build/AWS_IOT/production/mcc_generated_files/CryptoAuthenticationLibrary/basic/atca_basic_read.o
                0x0000000000006330                atcab_read_zone

.text.startTimerAtHead
                0x000000000000640e       0xd8
 .text.startTimerAtHead
                0x000000000000640e       0xd8 build/AWS_IOT/production/mcc_generated_files/drivers/timeout.o
                0x000000000000640e                startTimerAtHead

.text.atcab_nonce_base
                0x00000000000064e6       0xd4
 .text.atcab_nonce_base
                0x00000000000064e6       0xd4 build/AWS_IOT/production/mcc_generated_files/CryptoAuthenticationLibrary/basic/atca_basic_nonce.o
                0x00000000000064e6                atcab_nonce_base

.text.receivedFromCloud
                0x00000000000065ba       0xd4
 .text.receivedFromCloud
                0x00000000000065ba       0xd4 build/AWS_IOT/production/mcc_generated_files/application_manager.o

.text.atcab_get_zone_size
                0x000000000000668e       0xcc
 .text.atcab_get_zone_size
                0x000000000000668e       0xcc build/AWS_IOT/production/mcc_generated_files/CryptoAuthenticationLibrary/basic/atca_basic.o
                0x000000000000668e                atcab_get_zone_size

.text.readThingIdFromWinc
                0x000000000000675a       0xca
 .text.readThingIdFromWinc
                0x000000000000675a       0xca build/AWS_IOT/production/mcc_generated_files/cloud/wifi_service.o
                0x000000000000675a                readThingIdFromWinc

.text.m2m_validate_ap_parameters
                0x0000000000006824       0xc0
 .text.m2m_validate_ap_parameters
                0x0000000000006824       0xc0 build/AWS_IOT/production/mcc_generated_files/winc/m2m/m2m_wifi.o

.text.m2m_wifi_connect_wep
                0x00000000000068e4       0xbe
 .text.m2m_wifi_connect_wep
                0x00000000000068e4       0xbe build/AWS_IOT/production/mcc_generated_files/winc/m2m/m2m_wifi.o
                0x00000000000068e4                m2m_wifi_connect_wep

.text.ntpTimeFetchTask
                0x00000000000069a2       0xbc
 .text.ntpTimeFetchTask
                0x00000000000069a2       0xbc build/AWS_IOT/production/mcc_generated_files/cloud/wifi_service.o
                0x00000000000069a2                ntpTimeFetchTask

.text.m2m_fwinfo_get_firmware_info
                0x0000000000006a5e       0xbc
 .text.m2m_fwinfo_get_firmware_info
                0x0000000000006a5e       0xbc build/AWS_IOT/production/mcc_generated_files/winc/m2m/m2m_fwinfo.o
                0x0000000000006a5e                m2m_fwinfo_get_firmware_info

.text.avrlibc   0x0000000000006b1a       0xbc
 .text.avrlibc  0x0000000000006b1a       0xbc /Applications/microchip/xc8/v2.10/avr/bin/../lib/gcc/avr/5.4.0/../../../../avr/lib/avrxmega3/libc.a(ultoa_invert.o)
                0x0000000000006b1a                __ultoa_invert

.text.connect   0x0000000000006bd6       0xb8
 .text.connect  0x0000000000006bd6       0xb8 build/AWS_IOT/production/mcc_generated_files/winc/socket/socket.o
                0x0000000000006bd6                connect

.text.atcab_verify_extern
                0x0000000000006c8e       0xb6
 .text.atcab_verify_extern
                0x0000000000006c8e       0xb6 build/AWS_IOT/production/mcc_generated_files/CryptoAuthenticationLibrary/basic/atca_basic_verify.o
                0x0000000000006c8e                atcab_verify_extern

.text.timeout_create
                0x0000000000006d44       0xb4
 .text.timeout_create
                0x0000000000006d44       0xb4 build/AWS_IOT/production/mcc_generated_files/drivers/timeout.o
                0x0000000000006d44                timeout_create

.text.winc_bus_read_block
                0x0000000000006df8       0xb4
 .text.winc_bus_read_block
                0x0000000000006df8       0xb4 build/AWS_IOT/production/mcc_generated_files/winc/driver/winc_spi.o
                0x0000000000006df8                winc_bus_read_block

.text.atGetExecTime
                0x0000000000006eac       0xb2
 .text.atGetExecTime
                0x0000000000006eac       0xb2 build/AWS_IOT/production/mcc_generated_files/CryptoAuthenticationLibrary/atca_execution.o
                0x0000000000006eac                atGetExecTime

.text.m2m_wifi_start_provision_mode_ext
                0x0000000000006f5e       0xb2
 .text.m2m_wifi_start_provision_mode_ext
                0x0000000000006f5e       0xb2 build/AWS_IOT/production/mcc_generated_files/winc/m2m/m2m_wifi.o
                0x0000000000006f5e                m2m_wifi_start_provision_mode_ext

.text.LED_test  0x0000000000007010       0xb2
 .text.LED_test
                0x0000000000007010       0xb2 build/AWS_IOT/production/mcc_generated_files/led.o
                0x0000000000007010                LED_test

.text           0x00000000000070c2       0xb2
 .text          0x00000000000070c2       0xb2 /Applications/microchip/xc8/v2.10/avr/bin/../lib/gcc/avr/5.4.0/../../../../avr/lib/avrxmega3/libc.a(mktime.o)
                0x00000000000070c2                mktime

.text.controlDeviceShadowTask
                0x0000000000007174       0xb0
 .text.controlDeviceShadowTask
                0x0000000000007174       0xb0 build/AWS_IOT/production/mcc_generated_files/application_manager.o
                0x0000000000007174                controlDeviceShadowTask

.text.atcab_ecdh_base
                0x0000000000007224       0xac
 .text.atcab_ecdh_base
                0x0000000000007224       0xac build/AWS_IOT/production/mcc_generated_files/CryptoAuthenticationLibrary/basic/atca_basic_ecdh.o
                0x0000000000007224                atcab_ecdh_base

.text.__vector_29
                0x00000000000072d0       0xaa
 .text.__vector_29
                0x00000000000072d0       0xaa build/AWS_IOT/production/mcc_generated_files/src/pin_manager.o
                0x00000000000072d0                __vector_29

.text.winc_adapter_spi_write
                0x000000000000737a       0xa6
 .text.winc_adapter_spi_write
                0x000000000000737a       0xa6 build/AWS_IOT/production/mcc_generated_files/winc/driver/winc_adapter.o
                0x000000000000737a                winc_adapter_spi_write

.text.winc_adapter_spi_read
                0x0000000000007420       0xa6
 .text.winc_adapter_spi_read
                0x0000000000007420       0xa6 build/AWS_IOT/production/mcc_generated_files/winc/driver/winc_adapter.o
                0x0000000000007420                winc_adapter_spi_read

.text.ecdsa_process_sign_gen_request
                0x00000000000074c6       0xa4
 .text.ecdsa_process_sign_gen_request
                0x00000000000074c6       0xa4 build/AWS_IOT/production/mcc_generated_files/cloud/crypto_client/crypto_client.o
                0x00000000000074c6                ecdsa_process_sign_gen_request

.text.enable_provision_ap
                0x000000000000756a       0xa2
 .text.enable_provision_ap
                0x000000000000756a       0xa2 build/AWS_IOT/production/mcc_generated_files/cloud/wifi_service.o
                0x000000000000756a                enable_provision_ap

.text.BSD_recv  0x000000000000760c       0xa0
 .text.BSD_recv
                0x000000000000760c       0xa0 build/AWS_IOT/production/mcc_generated_files/mqtt/mqtt_winc_adapter.o
                0x000000000000760c                BSD_recv

.text.I2C0_DO_RX
                0x00000000000076ac       0xa0
 .text.I2C0_DO_RX
                0x00000000000076ac       0xa0 build/AWS_IOT/production/mcc_generated_files/src/twi0_master.o

.text.close     0x000000000000774c       0x9c
 .text.close    0x000000000000774c       0x9c build/AWS_IOT/production/mcc_generated_files/winc/socket/socket.o
                0x000000000000774c                close

.text.atcab_genkey_base
                0x00000000000077e8       0x9a
 .text.atcab_genkey_base
                0x00000000000077e8       0x9a build/AWS_IOT/production/mcc_generated_files/CryptoAuthenticationLibrary/basic/atca_basic_genkey.o
                0x00000000000077e8                atcab_genkey_base

.text.BSD_send  0x0000000000007882       0x98
 .text.BSD_send
                0x0000000000007882       0x98 build/AWS_IOT/production/mcc_generated_files/mqtt/mqtt_winc_adapter.o
                0x0000000000007882                BSD_send

.text.timeout_deleteHelper
                0x000000000000791a       0x96
 .text.timeout_deleteHelper
                0x000000000000791a       0x96 build/AWS_IOT/production/mcc_generated_files/drivers/timeout.o
                0x000000000000791a                timeout_deleteHelper

.text.spi_read_reg
                0x00000000000079b0       0x96
 .text.spi_read_reg
                0x00000000000079b0       0x96 build/AWS_IOT/production/mcc_generated_files/winc/driver/winc_spi.o

.text.manageSubscriptionMessage
                0x0000000000007a46       0x94
 .text.manageSubscriptionMessage
                0x0000000000007a46       0x94 build/AWS_IOT/production/mcc_generated_files/cloud/mqtt_service.o

.text.updateDeviceShadow
                0x0000000000007ada       0x94
 .text.updateDeviceShadow
                0x0000000000007ada       0x94 build/AWS_IOT/production/mcc_generated_files/application_manager.o

.text.winc_bus_clear_reg_bits
                0x0000000000007b6e       0x92
 .text.winc_bus_clear_reg_bits
                0x0000000000007b6e       0x92 build/AWS_IOT/production/mcc_generated_files/winc/driver/winc_spi.o
                0x0000000000007b6e                winc_bus_clear_reg_bits

.text.atcab_init
                0x0000000000007c00       0x90
 .text.atcab_init
                0x0000000000007c00       0x90 build/AWS_IOT/production/mcc_generated_files/CryptoAuthenticationLibrary/basic/atca_basic.o
                0x0000000000007c00                atcab_init

.text.spi_flash_read
                0x0000000000007c90       0x8e
 .text.spi_flash_read
                0x0000000000007c90       0x8e build/AWS_IOT/production/mcc_generated_files/winc/spi_flash/spi_flash.o
                0x0000000000007c90                spi_flash_read

.text.MQTT_ExchangeBufferRead
                0x0000000000007d1e       0x8c
 .text.MQTT_ExchangeBufferRead
                0x0000000000007d1e       0x8c build/AWS_IOT/production/mcc_generated_files/mqtt/mqtt_exchange_buffer/mqtt_exchange_buffer.o
                0x0000000000007d1e                MQTT_ExchangeBufferRead

.text.MQTT_ExchangeBufferPeek
                0x0000000000007daa       0x8a
 .text.MQTT_ExchangeBufferPeek
                0x0000000000007daa       0x8a build/AWS_IOT/production/mcc_generated_files/mqtt/mqtt_exchange_buffer/mqtt_exchange_buffer.o
                0x0000000000007daa                MQTT_ExchangeBufferPeek

.text.winc_chip_wake
                0x0000000000007e34       0x8a
 .text.winc_chip_wake
                0x0000000000007e34       0x8a build/AWS_IOT/production/mcc_generated_files/winc/driver/winc_asic.o
                0x0000000000007e34                winc_chip_wake

.text.timeout_isr
                0x0000000000007ebe       0x88
 .text.timeout_isr
                0x0000000000007ebe       0x88 build/AWS_IOT/production/mcc_generated_files/drivers/timeout.o
                0x0000000000007ebe                timeout_isr

.text.winc_bus_set_reg_bits
                0x0000000000007f46       0x88
 .text.winc_bus_set_reg_bits
                0x0000000000007f46       0x88 build/AWS_IOT/production/mcc_generated_files/winc/driver/winc_spi.o
                0x0000000000007f46                winc_bus_set_reg_bits

.text.atcab_sign_base
                0x0000000000007fce       0x86
 .text.atcab_sign_base
                0x0000000000007fce       0x86 build/AWS_IOT/production/mcc_generated_files/CryptoAuthenticationLibrary/basic/atca_basic_sign.o
                0x0000000000007fce                atcab_sign_base

.text.MQTT_ExchangeBufferWrite
                0x0000000000008054       0x86
 .text.MQTT_ExchangeBufferWrite
                0x0000000000008054       0x86 build/AWS_IOT/production/mcc_generated_files/mqtt/mqtt_exchange_buffer/mqtt_exchange_buffer.o
                0x0000000000008054                MQTT_ExchangeBufferWrite

.text.CRYPTO_CLIENT_printSerialNumber
                0x00000000000080da       0x84
 .text.CRYPTO_CLIENT_printSerialNumber
                0x00000000000080da       0x84 build/AWS_IOT/production/mcc_generated_files/cloud/crypto_client/crypto_client.o
                0x00000000000080da                CRYPTO_CLIENT_printSerialNumber

.text.ecdh_derive_key_pair
                0x000000000000815e       0x84
 .text.ecdh_derive_key_pair
                0x000000000000815e       0x84 build/AWS_IOT/production/mcc_generated_files/cloud/crypto_client/crypto_client.o
                0x000000000000815e                ecdh_derive_key_pair

.text.winc_bus_write_reg
                0x00000000000081e2       0x84
 .text.winc_bus_write_reg
                0x00000000000081e2       0x84 build/AWS_IOT/production/mcc_generated_files/winc/driver/winc_spi.o
                0x00000000000081e2                winc_bus_write_reg

.text           0x0000000000008266       0x84
 .text          0x0000000000008266       0x84 /Applications/microchip/xc8/v2.10/avr/bin/../lib/gcc/avr/5.4.0/../../../../avr/lib/avrxmega3/libc.a(localtime_r.o)
                0x0000000000008266                localtime_r

.text.MQTT_Disconnect
                0x00000000000082ea       0x82
 .text.MQTT_Disconnect
                0x00000000000082ea       0x82 build/AWS_IOT/production/mcc_generated_files/mqtt/mqtt_core/mqtt_core.o
                0x00000000000082ea                MQTT_Disconnect

.text.hal_check_wake
                0x000000000000836c       0x80
 .text.hal_check_wake
                0x000000000000836c       0x80 build/AWS_IOT/production/mcc_generated_files/CryptoAuthenticationLibrary/hal/atca_hal.o
                0x000000000000836c                hal_check_wake

.text.winc_hif_receive
                0x00000000000083ec       0x80
 .text.winc_hif_receive
                0x00000000000083ec       0x80 build/AWS_IOT/production/mcc_generated_files/winc/driver/winc_hif.o
                0x00000000000083ec                winc_hif_receive

.text.MQTT_CreateSubscribePacket
                0x000000000000846c       0x7e
 .text.MQTT_CreateSubscribePacket
                0x000000000000846c       0x7e build/AWS_IOT/production/mcc_generated_files/mqtt/mqtt_core/mqtt_core.o
                0x000000000000846c                MQTT_CreateSubscribePacket

.text.winc_drv_init
                0x00000000000084ea       0x7e
 .text.winc_drv_init
                0x00000000000084ea       0x7e build/AWS_IOT/production/mcc_generated_files/winc/driver/winc_drv.o
                0x00000000000084ea                winc_drv_init

.text.hexstr_2_bytes
                0x0000000000008568       0x7e
 .text.hexstr_2_bytes
                0x0000000000008568       0x7e build/AWS_IOT/production/mcc_generated_files/winc/m2m/m2m_wifi.o

.text.atcab_random
                0x00000000000085e6       0x7c
 .text.atcab_random
                0x00000000000085e6       0x7c build/AWS_IOT/production/mcc_generated_files/CryptoAuthenticationLibrary/basic/atca_basic_random.o
                0x00000000000085e6                atcab_random

.text.hal_i2c_receive
                0x0000000000008662       0x7c
 .text.hal_i2c_receive
                0x0000000000008662       0x7c build/AWS_IOT/production/mcc_generated_files/CryptoAuthenticationLibrary/hal/atca_i2c_hal.o
                0x0000000000008662                hal_i2c_receive

.text.I2C0_DO_TX_EMPTY
                0x00000000000086de       0x7c
 .text.I2C0_DO_TX_EMPTY
                0x00000000000086de       0x7c build/AWS_IOT/production/mcc_generated_files/src/twi0_master.o

.text.atcab_read_serial_number
                0x000000000000875a       0x7a
 .text.atcab_read_serial_number
                0x000000000000875a       0x7a build/AWS_IOT/production/mcc_generated_files/CryptoAuthenticationLibrary/basic/atca_basic_read.o
                0x000000000000875a                atcab_read_serial_number

.text.debug_printer
                0x00000000000087d4       0x7a
 .text.debug_printer
                0x00000000000087d4       0x7a build/AWS_IOT/production/mcc_generated_files/debug_print.o
                0x00000000000087d4                debug_printer

.text.winc_chip_sleep
                0x000000000000884e       0x78
 .text.winc_chip_sleep
                0x000000000000884e       0x78 build/AWS_IOT/production/mcc_generated_files/winc/driver/winc_asic.o
                0x000000000000884e                winc_chip_sleep

.text.avrlibc   0x00000000000088c6       0x78
 .text.avrlibc  0x00000000000088c6       0x78 /Applications/microchip/xc8/v2.10/avr/bin/../lib/gcc/avr/5.4.0/../../../../avr/lib/avrxmega3/libc.a(fputc.o)
                0x00000000000088c6                fputc

.text.MQTT_CLIENT_subscribe
                0x000000000000893e       0x76
 .text.MQTT_CLIENT_subscribe
                0x000000000000893e       0x76 build/AWS_IOT/production/mcc_generated_files/cloud/mqtt_service.o
                0x000000000000893e                MQTT_CLIENT_subscribe

.text.__vector_3
                0x00000000000089b4       0x76
 .text.__vector_3
                0x00000000000089b4       0x76 build/AWS_IOT/production/mcc_generated_files/src/rtc.o
                0x00000000000089b4                __vector_3

.text.m2m_fwinfo_version_check
                0x0000000000008a2a       0x74
 .text.m2m_fwinfo_version_check
                0x0000000000008a2a       0x74 build/AWS_IOT/production/mcc_generated_files/winc/m2m/m2m_fwinfo.o
                0x0000000000008a2a                m2m_fwinfo_version_check

.text.dnsHandler
                0x0000000000008a9e       0x72
 .text.dnsHandler
                0x0000000000008a9e       0x72 build/AWS_IOT/production/mcc_generated_files/cloud/cloud_service.o

.text.wifi_connectToAp
                0x0000000000008b10       0x70
 .text.wifi_connectToAp
                0x0000000000008b10       0x70 build/AWS_IOT/production/mcc_generated_files/cloud/wifi_service.o
                0x0000000000008b10                wifi_connectToAp

.text.I2C0_DO_TX
                0x0000000000008b80       0x70
 .text.I2C0_DO_TX
                0x0000000000008b80       0x70 build/AWS_IOT/production/mcc_generated_files/src/twi0_master.o

.text.atCRC     0x0000000000008bf0       0x6e
 .text.atCRC    0x0000000000008bf0       0x6e build/AWS_IOT/production/mcc_generated_files/CryptoAuthenticationLibrary/atca_command.o
                0x0000000000008bf0                atCRC

.text.PORT_Initialize
                0x0000000000008c5e       0x6e
 .text.PORT_Initialize
                0x0000000000008c5e       0x6e build/AWS_IOT/production/mcc_generated_files/src/pin_manager.o
                0x0000000000008c5e                PORT_Initialize

.text.spi_data_read
                0x0000000000008ccc       0x6e
 .text.spi_data_read
                0x0000000000008ccc       0x6e build/AWS_IOT/production/mcc_generated_files/winc/driver/winc_spi.o

.text.m2m_wifi_start_provision_mode
                0x0000000000008d3a       0x6e
 .text.m2m_wifi_start_provision_mode
                0x0000000000008d3a       0x6e build/AWS_IOT/production/mcc_generated_files/winc/m2m/m2m_wifi.o
                0x0000000000008d3a                m2m_wifi_start_provision_mode

.text.atcab_sign
                0x0000000000008da8       0x6c
 .text.atcab_sign
                0x0000000000008da8       0x6c build/AWS_IOT/production/mcc_generated_files/CryptoAuthenticationLibrary/basic/atca_basic_sign.o
                0x0000000000008da8                atcab_sign

.text.spi_rsp   0x0000000000008e14       0x6a
 .text.spi_rsp  0x0000000000008e14       0x6a build/AWS_IOT/production/mcc_generated_files/winc/driver/winc_spi.o

.text.SENSORS_getTempValue
                0x0000000000008e7e       0x6a
 .text.SENSORS_getTempValue
                0x0000000000008e7e       0x6a build/AWS_IOT/production/mcc_generated_files/sensors_handling.o
                0x0000000000008e7e                SENSORS_getTempValue

.text.wifi_reinit
                0x0000000000008ee8       0x68
 .text.wifi_reinit
                0x0000000000008ee8       0x68 build/AWS_IOT/production/mcc_generated_files/cloud/wifi_service.o
                0x0000000000008ee8                wifi_reinit

.text.hal_i2c_wake
                0x0000000000008f50       0x68
 .text.hal_i2c_wake
                0x0000000000008f50       0x68 build/AWS_IOT/production/mcc_generated_files/CryptoAuthenticationLibrary/hal/atca_i2c_hal.o
                0x0000000000008f50                hal_i2c_wake

.text.timeout_callNextCallback
                0x0000000000008fb8       0x68
 .text.timeout_callNextCallback
                0x0000000000008fb8       0x68 build/AWS_IOT/production/mcc_generated_files/drivers/timeout.o
                0x0000000000008fb8                timeout_callNextCallback

.text.I2C0_Open
                0x0000000000009020       0x68
 .text.I2C0_Open
                0x0000000000009020       0x68 build/AWS_IOT/production/mcc_generated_files/src/twi0_master.o
                0x0000000000009020                I2C0_Open

.text.atCheckCrc
                0x0000000000009088       0x66
 .text.atCheckCrc
                0x0000000000009088       0x66 build/AWS_IOT/production/mcc_generated_files/CryptoAuthenticationLibrary/atca_command.o
                0x0000000000009088                atCheckCrc

.text.i2c_read2ByteRegister
                0x00000000000090ee       0x66
 .text.i2c_read2ByteRegister
                0x00000000000090ee       0x66 build/AWS_IOT/production/mcc_generated_files/drivers/i2c_simple_master.o
                0x00000000000090ee                i2c_read2ByteRegister

.text.m2m_wifi_init_start
                0x0000000000009154       0x66
 .text.m2m_wifi_init_start
                0x0000000000009154       0x66 build/AWS_IOT/production/mcc_generated_files/winc/m2m/m2m_wifi.o
                0x0000000000009154                m2m_wifi_init_start

.text.CLOUD_init
                0x00000000000091ba       0x62
 .text.CLOUD_init
                0x00000000000091ba       0x62 build/AWS_IOT/production/mcc_generated_files/cloud/aws_cloud_service.o
                0x00000000000091ba                CLOUD_init

.text.isATCAError
                0x000000000000921c       0x62
 .text.isATCAError
                0x000000000000921c       0x62 build/AWS_IOT/production/mcc_generated_files/CryptoAuthenticationLibrary/atca_command.o
                0x000000000000921c                isATCAError

.text._atinit   0x000000000000927e       0x62
 .text._atinit  0x000000000000927e       0x62 build/AWS_IOT/production/mcc_generated_files/CryptoAuthenticationLibrary/atca_iface.o
                0x000000000000927e                _atinit

.text.BSD_socket
                0x00000000000092e0       0x62
 .text.BSD_socket
                0x00000000000092e0       0x62 build/AWS_IOT/production/mcc_generated_files/mqtt/mqtt_winc_adapter.o
                0x00000000000092e0                BSD_socket

.text.m2m_wifi_configure_sntp
                0x0000000000009342       0x62
 .text.m2m_wifi_configure_sntp
                0x0000000000009342       0x62 build/AWS_IOT/production/mcc_generated_files/winc/m2m/m2m_wifi.o
                0x0000000000009342                m2m_wifi_configure_sntp

.text.avrlibc   0x00000000000093a4       0x60
 .text.avrlibc  0x00000000000093a4       0x60 /Applications/microchip/xc8/v2.10/avr/bin/../lib/gcc/avr/5.4.0/../../../../avr/lib/avrxmega3/libc.a(puts.o)
                0x00000000000093a4                puts

.text.atcab_get_addr
                0x0000000000009404       0x5e
 .text.atcab_get_addr
                0x0000000000009404       0x5e build/AWS_IOT/production/mcc_generated_files/CryptoAuthenticationLibrary/basic/atca_basic.o
                0x0000000000009404                atcab_get_addr

.text.atinit    0x0000000000009462       0x5e
 .text.atinit   0x0000000000009462       0x5e build/AWS_IOT/production/mcc_generated_files/CryptoAuthenticationLibrary/atca_iface.o
                0x0000000000009462                atinit

.text.TIME_ntpTimeStamp
                0x00000000000094c0       0x5e
 .text.TIME_ntpTimeStamp
                0x00000000000094c0       0x5e build/AWS_IOT/production/mcc_generated_files/time_service.o
                0x00000000000094c0                TIME_ntpTimeStamp

.text.initATCADevice
                0x000000000000951e       0x5c
 .text.initATCADevice
                0x000000000000951e       0x5c build/AWS_IOT/production/mcc_generated_files/CryptoAuthenticationLibrary/atca_device.o
                0x000000000000951e                initATCADevice

.text.atcab_lock
                0x000000000000957a       0x5a
 .text.atcab_lock
                0x000000000000957a       0x5a build/AWS_IOT/production/mcc_generated_files/CryptoAuthenticationLibrary/basic/atca_basic_lock.o
                0x000000000000957a                atcab_lock

.text.I2C0_MasterIsr
                0x00000000000095d4       0x5a
 .text.I2C0_MasterIsr
                0x00000000000095d4       0x5a build/AWS_IOT/production/mcc_generated_files/src/twi0_master.o

.text.wifi_init
                0x000000000000962e       0x58
 .text.wifi_init
                0x000000000000962e       0x58 build/AWS_IOT/production/mcc_generated_files/cloud/wifi_service.o
                0x000000000000962e                wifi_init

.text.CLOUD_disconnect
                0x0000000000009686       0x58
 .text.CLOUD_disconnect
                0x0000000000009686       0x58 build/AWS_IOT/production/mcc_generated_files/cloud/aws_cloud_service.o
                0x0000000000009686                CLOUD_disconnect

.text.__vector_4
                0x00000000000096de       0x58
 .text.__vector_4
                0x00000000000096de       0x58 build/AWS_IOT/production/mcc_generated_files/src/rtc.o
                0x00000000000096de                __vector_4

.text.__vector_23
                0x0000000000009736       0x58
 .text.__vector_23
                0x0000000000009736       0x58 build/AWS_IOT/production/mcc_generated_files/src/adc0.o
                0x0000000000009736                __vector_23

.text.hal_iface_init
                0x000000000000978e       0x56
 .text.hal_iface_init
                0x000000000000978e       0x56 build/AWS_IOT/production/mcc_generated_files/CryptoAuthenticationLibrary/hal/atca_hal.o
                0x000000000000978e                hal_iface_init

.text.MQTT_CLIENT_publish
                0x00000000000097e4       0x54
 .text.MQTT_CLIENT_publish
                0x00000000000097e4       0x54 build/AWS_IOT/production/mcc_generated_files/cloud/mqtt_service.o
                0x00000000000097e4                MQTT_CLIENT_publish

.text.MQTT_CLIENT_connect
                0x0000000000009838       0x54
 .text.MQTT_CLIENT_connect
                0x0000000000009838       0x54 build/AWS_IOT/production/mcc_generated_files/cloud/mqtt_service.o
                0x0000000000009838                MQTT_CLIENT_connect

.text.__vector_31
                0x000000000000988c       0x52
 .text.__vector_31
                0x000000000000988c       0x52 build/AWS_IOT/production/mcc_generated_files/src/usart2.o
                0x000000000000988c                __vector_31

.text.__vector_32
                0x00000000000098de       0x52
 .text.__vector_32
                0x00000000000098de       0x52 build/AWS_IOT/production/mcc_generated_files/src/usart2.o
                0x00000000000098de                __vector_32

.text.MQTT_ClientInitialise
                0x0000000000009930       0x50
 .text.MQTT_ClientInitialise
                0x0000000000009930       0x50 build/AWS_IOT/production/mcc_generated_files/mqtt/mqtt_comm_bsd/mqtt_comm_layer.o
                0x0000000000009930                MQTT_ClientInitialise

.text.getSocketInfo
                0x0000000000009980       0x50
 .text.getSocketInfo
                0x0000000000009980       0x50 build/AWS_IOT/production/mcc_generated_files/mqtt/mqtt_winc_adapter.o
                0x0000000000009980                getSocketInfo

.text.winc_bus_read_reg
                0x00000000000099d0       0x50
 .text.winc_bus_read_reg
                0x00000000000099d0       0x50 build/AWS_IOT/production/mcc_generated_files/winc/driver/winc_spi.o
                0x00000000000099d0                winc_bus_read_reg

.text.avrlibc   0x0000000000009a20       0x4e
 .text.avrlibc  0x0000000000009a20       0x4e /Applications/microchip/xc8/v2.10/avr/bin/../lib/gcc/avr/5.4.0/../../../../avr/lib/avrxmega3/libc.a(atol.o)
                0x0000000000009a20                atol

.text.avrlibc   0x0000000000009a6e       0x4e
 .text.avrlibc  0x0000000000009a6e       0x4e /Applications/microchip/xc8/v2.10/avr/bin/../lib/gcc/avr/5.4.0/../../../../avr/lib/avrxmega3/libc.a(strtok_r.o)
                0x0000000000009a6e                strtok_r

.text.softApConnectTask
                0x0000000000009abc       0x4c
 .text.softApConnectTask
                0x0000000000009abc       0x4c build/AWS_IOT/production/mcc_generated_files/cloud/wifi_service.o
                0x0000000000009abc                softApConnectTask

.text.CLKCTRL_Initialize
                0x0000000000009b08       0x4c
 .text.CLKCTRL_Initialize
                0x0000000000009b08       0x4c build/AWS_IOT/production/mcc_generated_files/mcc.o
                0x0000000000009b08                CLKCTRL_Initialize

.text.I2C0_set_callback
                0x0000000000009b54       0x4a
 .text.I2C0_set_callback
                0x0000000000009b54       0x4a build/AWS_IOT/production/mcc_generated_files/src/twi0_master.o

.text.wifi_disconnectFromAp
                0x0000000000009b9e       0x48
 .text.wifi_disconnectFromAp
                0x0000000000009b9e       0x48 build/AWS_IOT/production/mcc_generated_files/cloud/wifi_service.o
                0x0000000000009b9e                wifi_disconnectFromAp

.text.BSD_close
                0x0000000000009be6       0x48
 .text.BSD_close
                0x0000000000009be6       0x48 build/AWS_IOT/production/mcc_generated_files/mqtt/mqtt_winc_adapter.o
                0x0000000000009be6                BSD_close

.text.I2C0_Close
                0x0000000000009c2e       0x48
 .text.I2C0_Close
                0x0000000000009c2e       0x48 build/AWS_IOT/production/mcc_generated_files/src/twi0_master.o
                0x0000000000009c2e                I2C0_Close

.text.i2c_writeNBytes
                0x0000000000009c76       0x46
 .text.i2c_writeNBytes
                0x0000000000009c76       0x46 build/AWS_IOT/production/mcc_generated_files/drivers/i2c_simple_master.o
                0x0000000000009c76                i2c_writeNBytes

.text.USART2_Initialize
                0x0000000000009cbc       0x46
 .text.USART2_Initialize
                0x0000000000009cbc       0x46 build/AWS_IOT/production/mcc_generated_files/src/usart2.o
                0x0000000000009cbc                USART2_Initialize

.text.m2m_wifi_connect_open
                0x0000000000009d02       0x46
 .text.m2m_wifi_connect_open
                0x0000000000009d02       0x46 build/AWS_IOT/production/mcc_generated_files/winc/m2m/m2m_wifi.o
                0x0000000000009d02                m2m_wifi_connect_open

.text.atVerify  0x0000000000009d48       0x44
 .text.atVerify
                0x0000000000009d48       0x44 build/AWS_IOT/production/mcc_generated_files/CryptoAuthenticationLibrary/atca_command.o
                0x0000000000009d48                atVerify

.text.I2C0_DO_ADDRESS_NACK
                0x0000000000009d8c       0x44
 .text.I2C0_DO_ADDRESS_NACK
                0x0000000000009d8c       0x44 build/AWS_IOT/production/mcc_generated_files/src/twi0_master.o

.text.libgcc.div
                0x0000000000009dd0       0x44
 .text.libgcc.div
                0x0000000000009dd0       0x44 /Applications/microchip/xc8/v2.10/avr/bin/../lib/gcc/avr/5.4.0/avrxmega3/libgcc.a(_udivmodsi4.o)
                0x0000000000009dd0                __udivmodsi4

.text.avrlibc   0x0000000000009e14       0x44
 .text.avrlibc  0x0000000000009e14       0x44 /Applications/microchip/xc8/v2.10/avr/bin/../lib/gcc/avr/5.4.0/../../../../avr/lib/avrxmega3/libc.a(sprintf.o)
                0x0000000000009e14                sprintf

.text.NETWORK_wifiSslCallback
                0x0000000000009e58       0x42
 .text.NETWORK_wifiSslCallback
                0x0000000000009e58       0x42 build/AWS_IOT/production/mcc_generated_files/cloud/aws_cloud_service.o
                0x0000000000009e58                NETWORK_wifiSslCallback

.text.ecdh_derive_server_shared_secret
                0x0000000000009e9a       0x40
 .text.ecdh_derive_server_shared_secret
                0x0000000000009e9a       0x40 build/AWS_IOT/production/mcc_generated_files/cloud/crypto_client/crypto_client.o
                0x0000000000009e9a                ecdh_derive_server_shared_secret

.text.I2C0_DO_BUS_COLLISION
                0x0000000000009eda       0x3e
 .text.I2C0_DO_BUS_COLLISION
                0x0000000000009eda       0x3e build/AWS_IOT/production/mcc_generated_files/src/twi0_master.o

.text.USART2_DefaultTxIsrCb
                0x0000000000009f18       0x3e
 .text.USART2_DefaultTxIsrCb
                0x0000000000009f18       0x3e build/AWS_IOT/production/mcc_generated_files/src/usart2.o
                0x0000000000009f18                USART2_DefaultTxIsrCb

.text.USART2_Write
                0x0000000000009f56       0x3e
 .text.USART2_Write
                0x0000000000009f56       0x3e build/AWS_IOT/production/mcc_generated_files/src/usart2.o
                0x0000000000009f56                USART2_Write

.text.winc_chip_interrupts_enable
                0x0000000000009f94       0x3c
 .text.winc_chip_interrupts_enable
                0x0000000000009f94       0x3c build/AWS_IOT/production/mcc_generated_files/winc/driver/winc_asic.o
                0x0000000000009f94                winc_chip_interrupts_enable

.text.winc_chip_halt
                0x0000000000009fd0       0x3c
 .text.winc_chip_halt
                0x0000000000009fd0       0x3c build/AWS_IOT/production/mcc_generated_files/winc/driver/winc_asic.o
                0x0000000000009fd0                winc_chip_halt

.text.i2c_readNBytes
                0x000000000000a00c       0x3a
 .text.i2c_readNBytes
                0x000000000000a00c       0x3a build/AWS_IOT/production/mcc_generated_files/drivers/i2c_simple_master.o
                0x000000000000a00c                i2c_readNBytes

.text.get_device_id
                0x000000000000a046       0x38
 .text.get_device_id
                0x000000000000a046       0x38 build/AWS_IOT/production/mcc_generated_files/cli/cli.o

.text.getMQTT_ConnectionAge
                0x000000000000a07e       0x38
 .text.getMQTT_ConnectionAge
                0x000000000000a07e       0x38 build/AWS_IOT/production/mcc_generated_files/cloud/cloud_service.o

.text.winc_adapter_sleep
                0x000000000000a0b6       0x38
 .text.winc_adapter_sleep
                0x000000000000a0b6       0x38 build/AWS_IOT/production/mcc_generated_files/winc/driver/winc_adapter.o
                0x000000000000a0b6                winc_adapter_sleep

.text.CLOUD_connectAppProtocol
                0x000000000000a0ee       0x36
 .text.CLOUD_connectAppProtocol
                0x000000000000a0ee       0x36 build/AWS_IOT/production/mcc_generated_files/cloud/aws_cloud_service.o
                0x000000000000a0ee                CLOUD_connectAppProtocol

.text.atNonce   0x000000000000a124       0x36
 .text.atNonce  0x000000000000a124       0x36 build/AWS_IOT/production/mcc_generated_files/CryptoAuthenticationLibrary/atca_command.o
                0x000000000000a124                atNonce

.text.MQTT_Send
                0x000000000000a15a       0x36
 .text.MQTT_Send
                0x000000000000a15a       0x36 build/AWS_IOT/production/mcc_generated_files/mqtt/mqtt_comm_bsd/mqtt_comm_layer.o
                0x000000000000a15a                MQTT_Send

.text.m2m_ssl_handshake_rsp
                0x000000000000a190       0x36
 .text.m2m_ssl_handshake_rsp
                0x000000000000a190       0x36 build/AWS_IOT/production/mcc_generated_files/winc/m2m/m2m_ssl.o
                0x000000000000a190                m2m_ssl_handshake_rsp

.text.SYSTEM_Initialize
                0x000000000000a1c6       0x36
 .text.SYSTEM_Initialize
                0x000000000000a1c6       0x36 build/AWS_IOT/production/mcc_generated_files/mcc.o
                0x000000000000a1c6                SYSTEM_Initialize

.text           0x000000000000a1fc       0x36
 .text          0x000000000000a1fc       0x36 /Applications/microchip/xc8/v2.10/avr/bin/../lib/gcc/avr/5.4.0/../../../../avr/lib/avrxmega3/libc.a(ctime.o)
                0x000000000000a1fc                ctime

.text.m2m_wifi_get_firmware_version
                0x000000000000a232       0x34
 .text.m2m_wifi_get_firmware_version
                0x000000000000a232       0x34 build/AWS_IOT/production/mcc_generated_files/winc/m2m/m2m_wifi.o
                0x000000000000a232                m2m_wifi_get_firmware_version

.text.avrlibc   0x000000000000a266       0x34
 .text.avrlibc  0x000000000000a266       0x34 /Applications/microchip/xc8/v2.10/avr/bin/../lib/gcc/avr/5.4.0/../../../../avr/lib/avrxmega3/libc.a(strstr.o)
                0x000000000000a266                strstr

.text.mqttTimeoutTask
                0x000000000000a29a       0x32
 .text.mqttTimeoutTask
                0x000000000000a29a       0x32 build/AWS_IOT/production/mcc_generated_files/cloud/cloud_service.o
                0x000000000000a29a                mqttTimeoutTask

.text.mqttEncodeLength
                0x000000000000a2cc       0x32
 .text.mqttEncodeLength
                0x000000000000a2cc       0x32 build/AWS_IOT/production/mcc_generated_files/mqtt/mqtt_core/mqtt_core.o

.text.RTC_Initialize
                0x000000000000a2fe       0x32
 .text.RTC_Initialize
                0x000000000000a2fe       0x32 build/AWS_IOT/production/mcc_generated_files/src/rtc.o
                0x000000000000a2fe                RTC_Initialize

.text.I2C0_MasterOperation
                0x000000000000a330       0x32
 .text.I2C0_MasterOperation
                0x000000000000a330       0x32 build/AWS_IOT/production/mcc_generated_files/src/twi0_master.o
                0x000000000000a330                I2C0_MasterOperation

.text.USART2_Read
                0x000000000000a362       0x32
 .text.USART2_Read
                0x000000000000a362       0x32 build/AWS_IOT/production/mcc_generated_files/src/usart2.o
                0x000000000000a362                USART2_Read

.text.winc_hif_chip_sleep
                0x000000000000a394       0x32
 .text.winc_hif_chip_sleep
                0x000000000000a394       0x32 build/AWS_IOT/production/mcc_generated_files/winc/driver/winc_hif.o
                0x000000000000a394                winc_hif_chip_sleep

.text.m2m_ssl_set_active_ciphersuites
                0x000000000000a3c6       0x32
 .text.m2m_ssl_set_active_ciphersuites
                0x000000000000a3c6       0x32 build/AWS_IOT/production/mcc_generated_files/winc/m2m/m2m_ssl.o
                0x000000000000a3c6                m2m_ssl_set_active_ciphersuites

.text.gethostbyname
                0x000000000000a3f8       0x32
 .text.gethostbyname
                0x000000000000a3f8       0x32 build/AWS_IOT/production/mcc_generated_files/winc/socket/socket.o
                0x000000000000a3f8                gethostbyname

.text.libgcc.prologue
                0x000000000000a42a       0x32
 .text.libgcc.prologue
                0x000000000000a42a       0x32 /Applications/microchip/xc8/v2.10/avr/bin/../lib/gcc/avr/5.4.0/avrxmega3/libgcc.a(_prologue.o)
                0x000000000000a42a                __prologue_saves__

.text.checkBackTask
                0x000000000000a45c       0x30
 .text.checkBackTask
                0x000000000000a45c       0x30 build/AWS_IOT/production/mcc_generated_files/cloud/wifi_service.o
                0x000000000000a45c                checkBackTask

.text.winc_hif_chip_wake
                0x000000000000a48c       0x30
 .text.winc_hif_chip_wake
                0x000000000000a48c       0x30 build/AWS_IOT/production/mcc_generated_files/winc/driver/winc_hif.o
                0x000000000000a48c                winc_hif_chip_wake

.text.m2m_ssl_retrieve_hash
                0x000000000000a4bc       0x30
 .text.m2m_ssl_retrieve_hash
                0x000000000000a4bc       0x30 build/AWS_IOT/production/mcc_generated_files/winc/m2m/m2m_ssl.o
                0x000000000000a4bc                m2m_ssl_retrieve_hash

.text.libgcc.prologue
                0x000000000000a4ec       0x30
 .text.libgcc.prologue
                0x000000000000a4ec       0x30 /Applications/microchip/xc8/v2.10/avr/bin/../lib/gcc/avr/5.4.0/avrxmega3/libgcc.a(_epilogue.o)
                0x000000000000a4ec                __epilogue_restores__

.text.reconnect_cmd
                0x000000000000a51c       0x2e
 .text.reconnect_cmd
                0x000000000000a51c       0x2e build/AWS_IOT/production/mcc_generated_files/cli/cli.o

.text.libgcc.div
                0x000000000000a54a       0x2e
 .text.libgcc.div
                0x000000000000a54a       0x2e /Applications/microchip/xc8/v2.10/avr/bin/../lib/gcc/avr/5.4.0/avrxmega3/libgcc.a(_divmodsi4.o)
                0x000000000000a54a                __divmodsi4

.text.ADC0_Initialize
                0x000000000000a578       0x2c
 .text.ADC0_Initialize
                0x000000000000a578       0x2c build/AWS_IOT/production/mcc_generated_files/src/adc0.o
                0x000000000000a578                ADC0_Initialize

.text.USART2_DefaultRxIsrCb
                0x000000000000a5a4       0x2c
 .text.USART2_DefaultRxIsrCb
                0x000000000000a5a4       0x2c build/AWS_IOT/production/mcc_generated_files/src/usart2.o
                0x000000000000a5a4                USART2_DefaultRxIsrCb

.text.winc_adapter_interrupt_serviced
                0x000000000000a5d0       0x2c
 .text.winc_adapter_interrupt_serviced
                0x000000000000a5d0       0x2c build/AWS_IOT/production/mcc_generated_files/winc/driver/winc_adapter.o
                0x000000000000a5d0                winc_adapter_interrupt_serviced

.text.socketDeinit
                0x000000000000a5fc       0x2c
 .text.socketDeinit
                0x000000000000a5fc       0x2c build/AWS_IOT/production/mcc_generated_files/winc/socket/socket.o
                0x000000000000a5fc                socketDeinit

.text.avrlibc   0x000000000000a628       0x2c
 .text.avrlibc  0x000000000000a628       0x2c /Applications/microchip/xc8/v2.10/avr/bin/../lib/gcc/avr/5.4.0/../../../../avr/lib/avrxmega3/libc.a(printf.o)
                0x000000000000a628                printf

.text.hal_i2c_idle
                0x000000000000a654       0x2a
 .text.hal_i2c_idle
                0x000000000000a654       0x2a build/AWS_IOT/production/mcc_generated_files/CryptoAuthenticationLibrary/hal/atca_i2c_hal.o
                0x000000000000a654                hal_i2c_idle

.text.hal_i2c_sleep
                0x000000000000a67e       0x2a
 .text.hal_i2c_sleep
                0x000000000000a67e       0x2a build/AWS_IOT/production/mcc_generated_files/CryptoAuthenticationLibrary/hal/atca_i2c_hal.o
                0x000000000000a67e                hal_i2c_sleep

.text.atwake    0x000000000000a6a8       0x2a
 .text.atwake   0x000000000000a6a8       0x2a build/AWS_IOT/production/mcc_generated_files/CryptoAuthenticationLibrary/atca_iface.o
                0x000000000000a6a8                atwake

.text.stopTimeouts
                0x000000000000a6d2       0x2a
 .text.stopTimeouts
                0x000000000000a6d2       0x2a build/AWS_IOT/production/mcc_generated_files/drivers/timeout.o
                0x000000000000a6d2                stopTimeouts

.text.__vector_33
                0x000000000000a6fc       0x2a
 .text.__vector_33
                0x000000000000a6fc       0x2a build/AWS_IOT/production/mcc_generated_files/src/usart2.o
                0x000000000000a6fc                __vector_33

.text.spi_cmd_send
                0x000000000000a726       0x2a
 .text.spi_cmd_send
                0x000000000000a726       0x2a build/AWS_IOT/production/mcc_generated_files/winc/driver/winc_spi.o

.text.winc_hif_send_no_data
                0x000000000000a750       0x2a
 .text.winc_hif_send_no_data
                0x000000000000a750       0x2a build/AWS_IOT/production/mcc_generated_files/winc/driver/winc_hif.o
                0x000000000000a750                winc_hif_send_no_data

.text.avrlibc   0x000000000000a77a       0x2a
 .text.avrlibc  0x000000000000a77a       0x2a /Applications/microchip/xc8/v2.10/avr/bin/../lib/gcc/avr/5.4.0/../../../../avr/lib/avrxmega3/libc.a(mulsi10.o)
                0x000000000000a77a                __mulsi_const_10

.text.CLI_init  0x000000000000a7a4       0x28
 .text.CLI_init
                0x000000000000a7a4       0x28 build/AWS_IOT/production/mcc_generated_files/cli/cli.o
                0x000000000000a7a4                CLI_init

.text.CLOUD_setInitFlag
                0x000000000000a7cc       0x28
 .text.CLOUD_setInitFlag
                0x000000000000a7cc       0x28 build/AWS_IOT/production/mcc_generated_files/cloud/cloud_service.o
                0x000000000000a7cc                CLOUD_setInitFlag

.text.atcab_nonce_load
                0x000000000000a7f4       0x28
 .text.atcab_nonce_load
                0x000000000000a7f4       0x28 build/AWS_IOT/production/mcc_generated_files/CryptoAuthenticationLibrary/basic/atca_basic_nonce.o
                0x000000000000a7f4                atcab_nonce_load

.text.timeout_delete
                0x000000000000a81c       0x28
 .text.timeout_delete
                0x000000000000a81c       0x28 build/AWS_IOT/production/mcc_generated_files/drivers/timeout.o
                0x000000000000a81c                timeout_delete

.text.MQTT_GetReceivedData
                0x000000000000a844       0x28
 .text.MQTT_GetReceivedData
                0x000000000000a844       0x28 build/AWS_IOT/production/mcc_generated_files/mqtt/mqtt_comm_bsd/mqtt_comm_layer.o
                0x000000000000a844                MQTT_GetReceivedData

.text.TIME_GetcTime
                0x000000000000a86c       0x28
 .text.TIME_GetcTime
                0x000000000000a86c       0x28 build/AWS_IOT/production/mcc_generated_files/time_service.o
                0x000000000000a86c                TIME_GetcTime

.text.libgcc.div
                0x000000000000a894       0x28
 .text.libgcc.div
                0x000000000000a894       0x28 /Applications/microchip/xc8/v2.10/avr/bin/../lib/gcc/avr/5.4.0/avrxmega3/libgcc.a(_udivmodhi4.o)
                0x000000000000a894                __udivmodhi4

.text.libgcc.div
                0x000000000000a8bc       0x28
 .text.libgcc.div
                0x000000000000a8bc       0x28 /Applications/microchip/xc8/v2.10/avr/bin/../lib/gcc/avr/5.4.0/avrxmega3/libgcc.a(_divmodhi4.o)
                0x000000000000a8bc                __divmodhi4
                0x000000000000a8bc                _div

.text           0x000000000000a8e4       0x28
 .text          0x000000000000a8e4       0x28 /Applications/microchip/xc8/v2.10/avr/bin/../lib/gcc/avr/5.4.0/../../../../avr/lib/avrxmega3/libc.a(isLeap.o)
                0x000000000000a8e4                is_leap_year

.text.CLOUD_registerSubscription
                0x000000000000a90c       0x26
 .text.CLOUD_registerSubscription
                0x000000000000a90c       0x26 build/AWS_IOT/production/mcc_generated_files/cloud/cloud_service.o
                0x000000000000a90c                CLOUD_registerSubscription

.text.CREDENTIALS_STORAGE_clearWifiCredentials
                0x000000000000a932       0x26
 .text.CREDENTIALS_STORAGE_clearWifiCredentials
                0x000000000000a932       0x26 build/AWS_IOT/production/mcc_generated_files/credentials_storage/credentials_storage.o
                0x000000000000a932                CREDENTIALS_STORAGE_clearWifiCredentials

.text.initATCAIface
                0x000000000000a958       0x26
 .text.initATCAIface
                0x000000000000a958       0x26 build/AWS_IOT/production/mcc_generated_files/CryptoAuthenticationLibrary/atca_iface.o
                0x000000000000a958                initATCAIface

.text.checkPingreqTimeoutState
                0x000000000000a97e       0x26
 .text.checkPingreqTimeoutState
                0x000000000000a97e       0x26 build/AWS_IOT/production/mcc_generated_files/mqtt/mqtt_core/mqtt_core.o

.text.SPI0_ExchangeBlock
                0x000000000000a9a4       0x26
 .text.SPI0_ExchangeBlock
                0x000000000000a9a4       0x26 build/AWS_IOT/production/mcc_generated_files/src/spi0.o
                0x000000000000a9a4                SPI0_ExchangeBlock

.text.socketInit
                0x000000000000a9ca       0x26
 .text.socketInit
                0x000000000000a9ca       0x26 build/AWS_IOT/production/mcc_generated_files/winc/socket/socket.o
                0x000000000000a9ca                socketInit

.text.SPI0_WriteBlock
                0x000000000000a9f0       0x24
 .text.SPI0_WriteBlock
                0x000000000000a9f0       0x24 build/AWS_IOT/production/mcc_generated_files/src/spi0.o
                0x000000000000a9f0                SPI0_WriteBlock

.text.SPI0_ReadBlock
                0x000000000000aa14       0x24
 .text.SPI0_ReadBlock
                0x000000000000aa14       0x24 build/AWS_IOT/production/mcc_generated_files/src/spi0.o
                0x000000000000aa14                SPI0_ReadBlock

.text.I2C0_Poller
                0x000000000000aa38       0x24
 .text.I2C0_Poller
                0x000000000000aa38       0x24 build/AWS_IOT/production/mcc_generated_files/src/twi0_master.o
                0x000000000000aa38                I2C0_Poller

.text.winc_bus_read_reg_with_ret
                0x000000000000aa5c       0x24
 .text.winc_bus_read_reg_with_ret
                0x000000000000aa5c       0x24 build/AWS_IOT/production/mcc_generated_files/winc/driver/winc_spi.o
                0x000000000000aa5c                winc_bus_read_reg_with_ret

.text           0x000000000000aa80       0x24
 .text          0x000000000000aa80       0x24 /Applications/microchip/xc8/v2.10/avr/bin/../lib/gcc/avr/5.4.0/../../../../avr/lib/avrxmega3/libc.a(print_lz.o)
                0x000000000000aa80                __print_lz

.text.set_debug_level
                0x000000000000aaa4       0x22
 .text.set_debug_level
                0x000000000000aaa4       0x22 build/AWS_IOT/production/mcc_generated_files/cli/cli.o

.text.atca_delay_ms
                0x000000000000aac6       0x22
 .text.atca_delay_ms
                0x000000000000aac6       0x22 build/AWS_IOT/production/mcc_generated_files/CryptoAuthenticationLibrary/hal/hal_i2c_timer.o
                0x000000000000aac6                atca_delay_ms

.text.atidle    0x000000000000aae8       0x22
 .text.atidle   0x000000000000aae8       0x22 build/AWS_IOT/production/mcc_generated_files/CryptoAuthenticationLibrary/atca_iface.o
                0x000000000000aae8                atidle

.text.MQTT_Close
                0x000000000000ab0a       0x22
 .text.MQTT_Close
                0x000000000000ab0a       0x22 build/AWS_IOT/production/mcc_generated_files/mqtt/mqtt_comm_bsd/mqtt_comm_layer.o
                0x000000000000ab0a                MQTT_Close

.text.I2C0_SetBuffer
                0x000000000000ab2c       0x22
 .text.I2C0_SetBuffer
                0x000000000000ab2c       0x22 build/AWS_IOT/production/mcc_generated_files/src/twi0_master.o
                0x000000000000ab2c                I2C0_SetBuffer

.text.m2m_ssl_init
                0x000000000000ab4e       0x22
 .text.m2m_ssl_init
                0x000000000000ab4e       0x22 build/AWS_IOT/production/mcc_generated_files/winc/m2m/m2m_ssl.o
                0x000000000000ab4e                m2m_ssl_init

.text.m2m_wifi_download_mode
                0x000000000000ab70       0x22
 .text.m2m_wifi_download_mode
                0x000000000000ab70       0x22 build/AWS_IOT/production/mcc_generated_files/winc/m2m/m2m_wifi.o
                0x000000000000ab70                m2m_wifi_download_mode

.text.atGenKey  0x000000000000ab92       0x20
 .text.atGenKey
                0x000000000000ab92       0x20 build/AWS_IOT/production/mcc_generated_files/CryptoAuthenticationLibrary/atca_command.o
                0x000000000000ab92                atGenKey

.text.ADC0_GetConversion
                0x000000000000abb2       0x20
 .text.ADC0_GetConversion
                0x000000000000abb2       0x20 build/AWS_IOT/production/mcc_generated_files/src/adc0.o
                0x000000000000abb2                ADC0_GetConversion

.text.libgcc.mul
                0x000000000000abd2       0x20
 .text.libgcc.mul
                0x000000000000abd2       0x20 /Applications/microchip/xc8/v2.10/avr/bin/../lib/gcc/avr/5.4.0/avrxmega3/libgcc.a(_mulsi3.o)
                0x000000000000abd2                __mulsi3

.text.get_firmware_version
                0x000000000000abf2       0x1e
 .text.get_firmware_version
                0x000000000000abf2       0x1e build/AWS_IOT/production/mcc_generated_files/cli/cli.o

.text.get_cli_version
                0x000000000000ac10       0x1e
 .text.get_cli_version
                0x000000000000ac10       0x1e build/AWS_IOT/production/mcc_generated_files/cli/cli.o

.text.get_thing_id
                0x000000000000ac2e       0x1e
 .text.get_thing_id
                0x000000000000ac2e       0x1e build/AWS_IOT/production/mcc_generated_files/cli/cli.o

.text.atca_delay_us
                0x000000000000ac4c       0x1e
 .text.atca_delay_us
                0x000000000000ac4c       0x1e build/AWS_IOT/production/mcc_generated_files/CryptoAuthenticationLibrary/hal/hal_i2c_timer.o
                0x000000000000ac4c                atca_delay_us

.text.SPI0_Open
                0x000000000000ac6a       0x1e
 .text.SPI0_Open
                0x000000000000ac6a       0x1e build/AWS_IOT/production/mcc_generated_files/src/spi0.o
                0x000000000000ac6a                SPI0_Open

.text.__vector_22
                0x000000000000ac88       0x1e
 .text.__vector_22
                0x000000000000ac88       0x1e build/AWS_IOT/production/mcc_generated_files/src/adc0.o
                0x000000000000ac88                __vector_22

.text.__vector_2
                0x000000000000aca6       0x1e
 .text.__vector_2
                0x000000000000aca6       0x1e build/AWS_IOT/production/mcc_generated_files/mcc.o
                0x000000000000aca6                __vector_2

.text.initDeviceShadow
                0x000000000000acc4       0x1e
 .text.initDeviceShadow
                0x000000000000acc4       0x1e build/AWS_IOT/production/mcc_generated_files/application_manager.o
                0x000000000000acc4                initDeviceShadow

.text.libgcc.mul
                0x000000000000ace2       0x1e
 .text.libgcc.mul
                0x000000000000ace2       0x1e /Applications/microchip/xc8/v2.10/avr/bin/../lib/gcc/avr/5.4.0/avrxmega3/libgcc.a(_umulhisi3.o)
                0x000000000000ace2                __umulhisi3

.text.avrlibc   0x000000000000ad00       0x1e
 .text.avrlibc  0x000000000000ad00       0x1e /Applications/microchip/xc8/v2.10/avr/bin/../lib/gcc/avr/5.4.0/../../../../avr/lib/avrxmega3/libc.a(strncpy.o)
                0x000000000000ad00                strncpy

.text.I2C0_Initialize
                0x000000000000ad1e       0x1c
 .text.I2C0_Initialize
                0x000000000000ad1e       0x1c build/AWS_IOT/production/mcc_generated_files/src/twi0_master.o
                0x000000000000ad1e                I2C0_Initialize

.text.CryptoAuth_Initialize
                0x000000000000ad3a       0x1c
 .text.CryptoAuth_Initialize
                0x000000000000ad3a       0x1c build/AWS_IOT/production/mcc_generated_files/CryptoAuthenticationLibrary/CryptoAuth_init.o
                0x000000000000ad3a                CryptoAuth_Initialize

.text.avrlibc   0x000000000000ad56       0x1c
 .text.avrlibc  0x000000000000ad56       0x1c /Applications/microchip/xc8/v2.10/avr/bin/../lib/gcc/avr/5.4.0/../../../../avr/lib/avrxmega3/libc.a(strncmp.o)
                0x000000000000ad56                strncmp

.text.reset_cmd
                0x000000000000ad72       0x1a
 .text.reset_cmd
                0x000000000000ad72       0x1a build/AWS_IOT/production/mcc_generated_files/cli/cli.o

.text.atcab_release
                0x000000000000ad8c       0x1a
 .text.atcab_release
                0x000000000000ad8c       0x1a build/AWS_IOT/production/mcc_generated_files/CryptoAuthenticationLibrary/basic/atca_basic.o
                0x000000000000ad8c                atcab_release

.text.atcab_ecdh
                0x000000000000ada6       0x1a
 .text.atcab_ecdh
                0x000000000000ada6       0x1a build/AWS_IOT/production/mcc_generated_files/CryptoAuthenticationLibrary/basic/atca_basic_ecdh.o
                0x000000000000ada6                atcab_ecdh

.text.atCalcCrc
                0x000000000000adc0       0x1a
 .text.atCalcCrc
                0x000000000000adc0       0x1a build/AWS_IOT/production/mcc_generated_files/CryptoAuthenticationLibrary/atca_command.o
                0x000000000000adc0                atCalcCrc

.text.CPUINT_Initialize
                0x000000000000adda       0x1a
 .text.CPUINT_Initialize
                0x000000000000adda       0x1a build/AWS_IOT/production/mcc_generated_files/src/cpuint.o
                0x000000000000adda                CPUINT_Initialize

.text.I2C0_DO_SEND_ADR_READ
                0x000000000000adf4       0x1a
 .text.I2C0_DO_SEND_ADR_READ
                0x000000000000adf4       0x1a build/AWS_IOT/production/mcc_generated_files/src/twi0_master.o

.text.I2C0_DO_RX_NACK_STOP
                0x000000000000ae0e       0x1a
 .text.I2C0_DO_RX_NACK_STOP
                0x000000000000ae0e       0x1a build/AWS_IOT/production/mcc_generated_files/src/twi0_master.o

.text.m2m_wifi_init
                0x000000000000ae28       0x1a
 .text.m2m_wifi_init
                0x000000000000ae28       0x1a build/AWS_IOT/production/mcc_generated_files/winc/m2m/m2m_wifi.o
                0x000000000000ae28                m2m_wifi_init

.text.application_post_provisioning
                0x000000000000ae42       0x1a
 .text.application_post_provisioning
                0x000000000000ae42       0x1a build/AWS_IOT/production/mcc_generated_files/application_manager.o
                0x000000000000ae42                application_post_provisioning

.text.avrlibc   0x000000000000ae5c       0x1a
 .text.avrlibc  0x000000000000ae5c       0x1a /Applications/microchip/xc8/v2.10/avr/bin/../lib/gcc/avr/5.4.0/../../../../avr/lib/avrxmega3/libc.a(memcmp.o)
                0x000000000000ae5c                memcmp

.text.rd2RegCompleteHandler
                0x000000000000ae76       0x18
 .text.rd2RegCompleteHandler
                0x000000000000ae76       0x18 build/AWS_IOT/production/mcc_generated_files/drivers/i2c_simple_master.o

.text.I2C0_DO_SEND_ADR_WRITE
                0x000000000000ae8e       0x18
 .text.I2C0_DO_SEND_ADR_WRITE
                0x000000000000ae8e       0x18 build/AWS_IOT/production/mcc_generated_files/src/twi0_master.o

.text.I2C0_DO_BUS_ERROR
                0x000000000000aea6       0x18
 .text.I2C0_DO_BUS_ERROR
                0x000000000000aea6       0x18 build/AWS_IOT/production/mcc_generated_files/src/twi0_master.o

.text.winc_drv_start
                0x000000000000aebe       0x18
 .text.winc_drv_start
                0x000000000000aebe       0x18 build/AWS_IOT/production/mcc_generated_files/winc/driver/winc_drv.o
                0x000000000000aebe                winc_drv_start

.text.BOD_Initialize
                0x000000000000aed6       0x18
 .text.BOD_Initialize
                0x000000000000aed6       0x18 build/AWS_IOT/production/mcc_generated_files/mcc.o
                0x000000000000aed6                BOD_Initialize

.text           0x000000000000aeee       0x18
 .text          0x000000000000aeee       0x18 /Applications/microchip/xc8/v2.10/avr/bin/../lib/gcc/avr/5.4.0/../../../../avr/lib/avrxmega3/libc.a(set_system_time.o)
                0x000000000000aeee                set_system_time

.text.hal_i2c_send
                0x000000000000af06       0x16
 .text.hal_i2c_send
                0x000000000000af06       0x16 build/AWS_IOT/production/mcc_generated_files/CryptoAuthenticationLibrary/hal/atca_i2c_hal.o
                0x000000000000af06                hal_i2c_send

.text.releaseATCAIface
                0x000000000000af1c       0x16
 .text.releaseATCAIface
                0x000000000000af1c       0x16 build/AWS_IOT/production/mcc_generated_files/CryptoAuthenticationLibrary/atca_iface.o
                0x000000000000af1c                releaseATCAIface

.text.SPI0_Initialize
                0x000000000000af32       0x16
 .text.SPI0_Initialize
                0x000000000000af32       0x16 build/AWS_IOT/production/mcc_generated_files/src/spi0.o
                0x000000000000af32                SPI0_Initialize

.text.SPI0_OpenConfiguration
                0x000000000000af48       0x16
 .text.SPI0_OpenConfiguration
                0x000000000000af48       0x16 build/AWS_IOT/production/mcc_generated_files/src/spi0.o
                0x000000000000af48                SPI0_OpenConfiguration

.text.RTC_WriteCounter
                0x000000000000af5e       0x16
 .text.RTC_WriteCounter
                0x000000000000af5e       0x16 build/AWS_IOT/production/mcc_generated_files/src/rtc.o
                0x000000000000af5e                RTC_WriteCounter

.text.I2C0_DO_RESET
                0x000000000000af74       0x16
 .text.I2C0_DO_RESET
                0x000000000000af74       0x16 build/AWS_IOT/production/mcc_generated_files/src/twi0_master.o

.text.I2C0_DO_SEND_STOP
                0x000000000000af8a       0x16
 .text.I2C0_DO_SEND_STOP
                0x000000000000af8a       0x16 build/AWS_IOT/production/mcc_generated_files/src/twi0_master.o

.text.m2m_wifi_init_hold
                0x000000000000afa0       0x16
 .text.m2m_wifi_init_hold
                0x000000000000afa0       0x16 build/AWS_IOT/production/mcc_generated_files/winc/m2m/m2m_wifi.o
                0x000000000000afa0                m2m_wifi_init_hold

.text.DELAY_milliseconds
                0x000000000000afb6       0x16
 .text.DELAY_milliseconds
                0x000000000000afb6       0x16 build/AWS_IOT/production/mcc_generated_files/delay.o
                0x000000000000afb6                DELAY_milliseconds

.text.libgcc.mul
                0x000000000000afcc       0x16
 .text.libgcc.mul
                0x000000000000afcc       0x16 /Applications/microchip/xc8/v2.10/avr/bin/../lib/gcc/avr/5.4.0/avrxmega3/libgcc.a(_muluhisi3.o)
                0x000000000000afcc                __muluhisi3

.text.avrlibc   0x000000000000afe2       0x16
 .text.avrlibc  0x000000000000afe2       0x16 /Applications/microchip/xc8/v2.10/avr/bin/../lib/gcc/avr/5.4.0/../../../../avr/lib/avrxmega3/libc.a(strchr.o)
                0x000000000000afe2                strchr

.text.avrlibc   0x000000000000aff8       0x16
 .text.avrlibc  0x000000000000aff8       0x16 /Applications/microchip/xc8/v2.10/avr/bin/../lib/gcc/avr/5.4.0/../../../../avr/lib/avrxmega3/libc.a(strnlen_P.o)
                0x000000000000aff8                strnlen_P

.text.avrlibc   0x000000000000b00e       0x16
 .text.avrlibc  0x000000000000b00e       0x16 /Applications/microchip/xc8/v2.10/avr/bin/../lib/gcc/avr/5.4.0/../../../../avr/lib/avrxmega3/libc.a(strnlen.o)
                0x000000000000b00e                strnlen

.text.CLOUD_subscribe
                0x000000000000b024       0x14
 .text.CLOUD_subscribe
                0x000000000000b024       0x14 build/AWS_IOT/production/mcc_generated_files/cloud/aws_cloud_service.o
                0x000000000000b024                CLOUD_subscribe

.text.initATCACommand
                0x000000000000b038       0x14
 .text.initATCACommand
                0x000000000000b038       0x14 build/AWS_IOT/production/mcc_generated_files/CryptoAuthenticationLibrary/atca_command.o
                0x000000000000b038                initATCACommand

.text.atECDH    0x000000000000b04c       0x14
 .text.atECDH   0x000000000000b04c       0x14 build/AWS_IOT/production/mcc_generated_files/CryptoAuthenticationLibrary/atca_command.o
                0x000000000000b04c                atECDH

.text.atLock    0x000000000000b060       0x14
 .text.atLock   0x000000000000b060       0x14 build/AWS_IOT/production/mcc_generated_files/CryptoAuthenticationLibrary/atca_command.o
                0x000000000000b060                atLock

.text.atRandom  0x000000000000b074       0x14
 .text.atRandom
                0x000000000000b074       0x14 build/AWS_IOT/production/mcc_generated_files/CryptoAuthenticationLibrary/atca_command.o
                0x000000000000b074                atRandom

.text.atRead    0x000000000000b088       0x14
 .text.atRead   0x000000000000b088       0x14 build/AWS_IOT/production/mcc_generated_files/CryptoAuthenticationLibrary/atca_command.o
                0x000000000000b088                atRead

.text.atSign    0x000000000000b09c       0x14
 .text.atSign   0x000000000000b09c       0x14 build/AWS_IOT/production/mcc_generated_files/CryptoAuthenticationLibrary/atca_command.o
                0x000000000000b09c                atSign

.text.releaseATCADevice
                0x000000000000b0b0       0x14
 .text.releaseATCADevice
                0x000000000000b0b0       0x14 build/AWS_IOT/production/mcc_generated_files/CryptoAuthenticationLibrary/atca_device.o
                0x000000000000b0b0                releaseATCADevice

.text.checkPingrespTimeoutState
                0x000000000000b0c4       0x14
 .text.checkPingrespTimeoutState
                0x000000000000b0c4       0x14 build/AWS_IOT/production/mcc_generated_files/mqtt/mqtt_core/mqtt_core.o

.text.SPI0_ExchangeByte
                0x000000000000b0d8       0x14
 .text.SPI0_ExchangeByte
                0x000000000000b0d8       0x14 build/AWS_IOT/production/mcc_generated_files/src/spi0.o
                0x000000000000b0d8                SPI0_ExchangeByte

.text.m2m_wifi_connect
                0x000000000000b0ec       0x14
 .text.m2m_wifi_connect
                0x000000000000b0ec       0x14 build/AWS_IOT/production/mcc_generated_files/winc/m2m/m2m_wifi.o
                0x000000000000b0ec                m2m_wifi_connect

.text.CLOUD_setupTask
                0x000000000000b100       0x12
 .text.CLOUD_setupTask
                0x000000000000b100       0x12 build/AWS_IOT/production/mcc_generated_files/cloud/cloud_service.o
                0x000000000000b100                CLOUD_setupTask

.text.wifiHandlerTask
                0x000000000000b112       0x12
 .text.wifiHandlerTask
                0x000000000000b112       0x12 build/AWS_IOT/production/mcc_generated_files/cloud/wifi_service.o
                0x000000000000b112                wifiHandlerTask

.text.hal_i2c_init
                0x000000000000b124       0x12
 .text.hal_i2c_init
                0x000000000000b124       0x12 build/AWS_IOT/production/mcc_generated_files/CryptoAuthenticationLibrary/hal/atca_i2c_hal.o
                0x000000000000b124                hal_i2c_init

.text.checkConnackTimeoutState
                0x000000000000b136       0x12
 .text.checkConnackTimeoutState
                0x000000000000b136       0x12 build/AWS_IOT/production/mcc_generated_files/mqtt/mqtt_core/mqtt_core.o

.text.checkSubackTimeoutState
                0x000000000000b148       0x12
 .text.checkSubackTimeoutState
                0x000000000000b148       0x12 build/AWS_IOT/production/mcc_generated_files/mqtt/mqtt_core/mqtt_core.o

.text.checkUnsubackTimeoutState
                0x000000000000b15a       0x12
 .text.checkUnsubackTimeoutState
                0x000000000000b15a       0x12 build/AWS_IOT/production/mcc_generated_files/mqtt/mqtt_core/mqtt_core.o

.text.BSD_GetSocketState
                0x000000000000b16c       0x12
 .text.BSD_GetSocketState
                0x000000000000b16c       0x12 build/AWS_IOT/production/mcc_generated_files/mqtt/mqtt_winc_adapter.o
                0x000000000000b16c                BSD_GetSocketState

.text.I2C0_DO_IDLE
                0x000000000000b17e       0x12
 .text.I2C0_DO_IDLE
                0x000000000000b17e       0x12 build/AWS_IOT/production/mcc_generated_files/src/twi0_master.o

.text.I2C0_MasterResetBus
                0x000000000000b190       0x12
 .text.I2C0_MasterResetBus
                0x000000000000b190       0x12 build/AWS_IOT/production/mcc_generated_files/src/twi0_master.o
                0x000000000000b190                I2C0_MasterResetBus

.text.I2C0_MasterWaitForEvent
                0x000000000000b1a2       0x12
 .text.I2C0_MasterWaitForEvent
                0x000000000000b1a2       0x12 build/AWS_IOT/production/mcc_generated_files/src/twi0_master.o
                0x000000000000b1a2                I2C0_MasterWaitForEvent

.text.winc_adapter_init
                0x000000000000b1b4       0x12
 .text.winc_adapter_init
                0x000000000000b1b4       0x12 build/AWS_IOT/production/mcc_generated_files/winc/driver/winc_adapter.o
                0x000000000000b1b4                winc_adapter_init

.text.m2m_ssl_ecc_process_done
                0x000000000000b1c6       0x12
 .text.m2m_ssl_ecc_process_done
                0x000000000000b1c6       0x12 build/AWS_IOT/production/mcc_generated_files/winc/m2m/m2m_ssl.o
                0x000000000000b1c6                m2m_ssl_ecc_process_done

.text.m2m_wifi_default_connect
                0x000000000000b1d8       0x12
 .text.m2m_wifi_default_connect
                0x000000000000b1d8       0x12 build/AWS_IOT/production/mcc_generated_files/winc/m2m/m2m_wifi.o
                0x000000000000b1d8                m2m_wifi_default_connect

.text.m2m_wifi_disconnect
                0x000000000000b1ea       0x12
 .text.m2m_wifi_disconnect
                0x000000000000b1ea       0x12 build/AWS_IOT/production/mcc_generated_files/winc/m2m/m2m_wifi.o
                0x000000000000b1ea                m2m_wifi_disconnect

.text.m2m_wifi_get_system_time
                0x000000000000b1fc       0x12
 .text.m2m_wifi_get_system_time
                0x000000000000b1fc       0x12 build/AWS_IOT/production/mcc_generated_files/winc/m2m/m2m_wifi.o
                0x000000000000b1fc                m2m_wifi_get_system_time

.text.registerSocketCallback
                0x000000000000b20e       0x12
 .text.registerSocketCallback
                0x000000000000b20e       0x12 build/AWS_IOT/production/mcc_generated_files/winc/socket/socket.o
                0x000000000000b20e                registerSocketCallback

.text.LED_serviceInit
                0x000000000000b220       0x12
 .text.LED_serviceInit
                0x000000000000b220       0x12 build/AWS_IOT/production/mcc_generated_files/led.o
                0x000000000000b220                LED_serviceInit

.text.TIME_getCurrent
                0x000000000000b232       0x12
 .text.TIME_getCurrent
                0x000000000000b232       0x12 build/AWS_IOT/production/mcc_generated_files/time_service.o
                0x000000000000b232                TIME_getCurrent

.text.TIME_setStamp
                0x000000000000b244       0x12
 .text.TIME_setStamp
                0x000000000000b244       0x12 build/AWS_IOT/production/mcc_generated_files/time_service.o
                0x000000000000b244                TIME_setStamp

.text.TIME_getStamp
                0x000000000000b256       0x12
 .text.TIME_getStamp
                0x000000000000b256       0x12 build/AWS_IOT/production/mcc_generated_files/time_service.o
                0x000000000000b256                TIME_getStamp

.text.avrlibc   0x000000000000b268       0x12
 .text.avrlibc  0x000000000000b268       0x12 /Applications/microchip/xc8/v2.10/avr/bin/../lib/gcc/avr/5.4.0/../../../../avr/lib/avrxmega3/libc.a(memcpy.o)
                0x000000000000b268                memcpy

.text.avrlibc   0x000000000000b27a       0x12
 .text.avrlibc  0x000000000000b27a       0x12 /Applications/microchip/xc8/v2.10/avr/bin/../lib/gcc/avr/5.4.0/../../../../avr/lib/avrxmega3/libc.a(strcmp.o)
                0x000000000000b27a                strcmp

.text.avrlibc   0x000000000000b28c       0x12
 .text.avrlibc  0x000000000000b28c       0x12 /Applications/microchip/xc8/v2.10/avr/bin/../lib/gcc/avr/5.4.0/../../../../avr/lib/avrxmega3/libc.a(vprintf.o)
                0x000000000000b28c                vprintf

.text.CLOUD_isConnected
                0x000000000000b29e       0x10
 .text.CLOUD_isConnected
                0x000000000000b29e       0x10 build/AWS_IOT/production/mcc_generated_files/cloud/aws_cloud_service.o
                0x000000000000b29e                CLOUD_isConnected

.text.atcab_genkey
                0x000000000000b2ae       0x10
 .text.atcab_genkey
                0x000000000000b2ae       0x10 build/AWS_IOT/production/mcc_generated_files/CryptoAuthenticationLibrary/basic/atca_basic_genkey.o
                0x000000000000b2ae                atcab_genkey

.text.atcab_lock_data_slot
                0x000000000000b2be       0x10
 .text.atcab_lock_data_slot
                0x000000000000b2be       0x10 build/AWS_IOT/production/mcc_generated_files/CryptoAuthenticationLibrary/basic/atca_basic_lock.o
                0x000000000000b2be                atcab_lock_data_slot

.text.hal_iface_release
                0x000000000000b2ce       0x10
 .text.hal_iface_release
                0x000000000000b2ce       0x10 build/AWS_IOT/production/mcc_generated_files/CryptoAuthenticationLibrary/hal/atca_hal.o
                0x000000000000b2ce                hal_iface_release

.text.MQTT_ExchangeBufferInit
                0x000000000000b2de       0x10
 .text.MQTT_ExchangeBufferInit
                0x000000000000b2de       0x10 build/AWS_IOT/production/mcc_generated_files/mqtt/mqtt_exchange_buffer/mqtt_exchange_buffer.o
                0x000000000000b2de                MQTT_ExchangeBufferInit

.text.winc_bus_init
                0x000000000000b2ee       0x10
 .text.winc_bus_init
                0x000000000000b2ee       0x10 build/AWS_IOT/production/mcc_generated_files/winc/driver/winc_spi.o
                0x000000000000b2ee                winc_bus_init

.text.winc_interrupt_handler
                0x000000000000b2fe       0x10
 .text.winc_interrupt_handler
                0x000000000000b2fe       0x10 build/AWS_IOT/production/mcc_generated_files/winc/driver/winc_adapter.o

.text.SLPCTRL_Initialize
                0x000000000000b30e       0x10
 .text.SLPCTRL_Initialize
                0x000000000000b30e       0x10 build/AWS_IOT/production/mcc_generated_files/mcc.o
                0x000000000000b30e                SLPCTRL_Initialize

.text.WDT_Initialize
                0x000000000000b31e       0x10
 .text.WDT_Initialize
                0x000000000000b31e       0x10 build/AWS_IOT/production/mcc_generated_files/mcc.o
                0x000000000000b31e                WDT_Initialize

.text.debug_setPrefix
                0x000000000000b32e       0x10
 .text.debug_setPrefix
                0x000000000000b32e       0x10 build/AWS_IOT/production/mcc_generated_files/debug_print.o
                0x000000000000b32e                debug_setPrefix

.text.libgcc.div
                0x000000000000b33e       0x10
 .text.libgcc.div
                0x000000000000b33e       0x10 /Applications/microchip/xc8/v2.10/avr/bin/../lib/gcc/avr/5.4.0/avrxmega3/libgcc.a(_negsi2.o)
                0x000000000000b33e                __negsi2

.text.CLOUD_isDisconnected
                0x000000000000b34e        0xe
 .text.CLOUD_isDisconnected
                0x000000000000b34e        0xe build/AWS_IOT/production/mcc_generated_files/cloud/aws_cloud_service.o
                0x000000000000b34e                CLOUD_isDisconnected

.text.atsend    0x000000000000b35c        0xe
 .text.atsend   0x000000000000b35c        0xe build/AWS_IOT/production/mcc_generated_files/CryptoAuthenticationLibrary/atca_iface.o
                0x000000000000b35c                atsend

.text.atreceive
                0x000000000000b36a        0xe
 .text.atreceive
                0x000000000000b36a        0xe build/AWS_IOT/production/mcc_generated_files/CryptoAuthenticationLibrary/atca_iface.o
                0x000000000000b36a                atreceive

.text.USART2_IsRxReady
                0x000000000000b378        0xe
 .text.USART2_IsRxReady
                0x000000000000b378        0xe build/AWS_IOT/production/mcc_generated_files/src/usart2.o
                0x000000000000b378                USART2_IsRxReady

.text.winc_adapter_interrupt_request_pending
                0x000000000000b386        0xe
 .text.winc_adapter_interrupt_request_pending
                0x000000000000b386        0xe build/AWS_IOT/production/mcc_generated_files/winc/driver/winc_adapter.o
                0x000000000000b386                winc_adapter_interrupt_request_pending

.text.libgcc.mul
                0x000000000000b394        0xe
 .text.libgcc.mul
                0x000000000000b394        0xe /Applications/microchip/xc8/v2.10/avr/bin/../lib/gcc/avr/5.4.0/avrxmega3/libgcc.a(_usmulhisi3.o)
                0x000000000000b394                __usmulhisi3
                0x000000000000b398                __usmulhisi3_tail

.text.avrlibc   0x000000000000b3a2        0xe
 .text.avrlibc  0x000000000000b3a2        0xe /Applications/microchip/xc8/v2.10/avr/bin/../lib/gcc/avr/5.4.0/../../../../avr/lib/avrxmega3/libc.a(memset.o)
                0x000000000000b3a2                memset

.text.avrlibc   0x000000000000b3b0        0xe
 .text.avrlibc  0x000000000000b3b0        0xe /Applications/microchip/xc8/v2.10/avr/bin/../lib/gcc/avr/5.4.0/../../../../avr/lib/avrxmega3/libc.a(strcpy.o)
                0x000000000000b3b0                strcpy

.text.CLOUD_publishData
                0x000000000000b3be        0xc
 .text.CLOUD_publishData
                0x000000000000b3be        0xc build/AWS_IOT/production/mcc_generated_files/cloud/cloud_service.o
                0x000000000000b3be                CLOUD_publishData

.text.CLOUD_checkIsConnected
                0x000000000000b3ca        0xc
 .text.CLOUD_checkIsConnected
                0x000000000000b3ca        0xc build/AWS_IOT/production/mcc_generated_files/cloud/cloud_service.o
                0x000000000000b3ca                CLOUD_checkIsConnected

.text.atcab_lock_config_zone
                0x000000000000b3d6        0xc
 .text.atcab_lock_config_zone
                0x000000000000b3d6        0xc build/AWS_IOT/production/mcc_generated_files/CryptoAuthenticationLibrary/basic/atca_basic_lock.o
                0x000000000000b3d6                atcab_lock_config_zone

.text.atcab_lock_data_zone
                0x000000000000b3e2        0xc
 .text.atcab_lock_data_zone
                0x000000000000b3e2        0xc build/AWS_IOT/production/mcc_generated_files/CryptoAuthenticationLibrary/basic/atca_basic_lock.o
                0x000000000000b3e2                atcab_lock_data_zone

.text.RTC_EnableOVFInterrupt
                0x000000000000b3ee        0xc
 .text.RTC_EnableOVFInterrupt
                0x000000000000b3ee        0xc build/AWS_IOT/production/mcc_generated_files/src/rtc.o
                0x000000000000b3ee                RTC_EnableOVFInterrupt

.text.RTC_DisableOVFInterrupt
                0x000000000000b3fa        0xc
 .text.RTC_DisableOVFInterrupt
                0x000000000000b3fa        0xc build/AWS_IOT/production/mcc_generated_files/src/rtc.o
                0x000000000000b3fa                RTC_DisableOVFInterrupt

.text.RTC_ClearOVFInterruptFlag
                0x000000000000b406        0xc
 .text.RTC_ClearOVFInterruptFlag
                0x000000000000b406        0xc build/AWS_IOT/production/mcc_generated_files/src/rtc.o
                0x000000000000b406                RTC_ClearOVFInterruptFlag

.text.RTC_IsOVFInterruptEnabled
                0x000000000000b412        0xc
 .text.RTC_IsOVFInterruptEnabled
                0x000000000000b412        0xc build/AWS_IOT/production/mcc_generated_files/src/rtc.o
                0x000000000000b412                RTC_IsOVFInterruptEnabled

.text.I2C0_SetDataCompleteCallback
                0x000000000000b41e        0xc
 .text.I2C0_SetDataCompleteCallback
                0x000000000000b41e        0xc build/AWS_IOT/production/mcc_generated_files/src/twi0_master.o
                0x000000000000b41e                I2C0_SetDataCompleteCallback

.text.I2C0_SetAddressNackCallback
                0x000000000000b42a        0xc
 .text.I2C0_SetAddressNackCallback
                0x000000000000b42a        0xc build/AWS_IOT/production/mcc_generated_files/src/twi0_master.o
                0x000000000000b42a                I2C0_SetAddressNackCallback

.text.I2C0_MasterDisableIrq
                0x000000000000b436        0xc
 .text.I2C0_MasterDisableIrq
                0x000000000000b436        0xc build/AWS_IOT/production/mcc_generated_files/src/twi0_master.o
                0x000000000000b436                I2C0_MasterDisableIrq

.text.I2C0_MasterClearIrq
                0x000000000000b442        0xc
 .text.I2C0_MasterClearIrq
                0x000000000000b442        0xc build/AWS_IOT/production/mcc_generated_files/src/twi0_master.o
                0x000000000000b442                I2C0_MasterClearIrq

.text.I2C0_MasterBusErrorOverride
                0x000000000000b44e        0xc
 .text.I2C0_MasterBusErrorOverride
                0x000000000000b44e        0xc build/AWS_IOT/production/mcc_generated_files/src/twi0_master.o
                0x000000000000b44e                I2C0_MasterBusErrorOverride

.text.I2C0_MasterArbitrationlostOverride
                0x000000000000b45a        0xc
 .text.I2C0_MasterArbitrationlostOverride
                0x000000000000b45a        0xc build/AWS_IOT/production/mcc_generated_files/src/twi0_master.o
                0x000000000000b45a                I2C0_MasterArbitrationlostOverride

.text.I2C0_MasterIsRxOrTx
                0x000000000000b466        0xc
 .text.I2C0_MasterIsRxOrTx
                0x000000000000b466        0xc build/AWS_IOT/production/mcc_generated_files/src/twi0_master.o
                0x000000000000b466                I2C0_MasterIsRxOrTx

.text.I2C0_MasterClearBusCollision
                0x000000000000b472        0xc
 .text.I2C0_MasterClearBusCollision
                0x000000000000b472        0xc build/AWS_IOT/production/mcc_generated_files/src/twi0_master.o
                0x000000000000b472                I2C0_MasterClearBusCollision

.text.I2C0_MasterStop
                0x000000000000b47e        0xc
 .text.I2C0_MasterStop
                0x000000000000b47e        0xc build/AWS_IOT/production/mcc_generated_files/src/twi0_master.o
                0x000000000000b47e                I2C0_MasterStop

.text.I2C0_MasterSendAck
                0x000000000000b48a        0xc
 .text.I2C0_MasterSendAck
                0x000000000000b48a        0xc build/AWS_IOT/production/mcc_generated_files/src/twi0_master.o
                0x000000000000b48a                I2C0_MasterSendAck

.text.I2C0_MasterSendNack
                0x000000000000b496        0xc
 .text.I2C0_MasterSendNack
                0x000000000000b496        0xc build/AWS_IOT/production/mcc_generated_files/src/twi0_master.o
                0x000000000000b496                I2C0_MasterSendNack

.text.winc_hif_init
                0x000000000000b4a2        0xc
 .text.winc_hif_init
                0x000000000000b4a2        0xc build/AWS_IOT/production/mcc_generated_files/winc/driver/winc_hif.o
                0x000000000000b4a2                winc_hif_init

.text.libgcc    0x000000000000b4ae        0xc
 .text.libgcc   0x000000000000b4ae        0xc /Applications/microchip/xc8/v2.10/avr/bin/../lib/gcc/avr/5.4.0/avrxmega3/libgcc.a(_tablejump2.o)
                0x000000000000b4ae                __tablejump2__

.text.CLI_setdeviceId
                0x000000000000b4ba        0xa
 .text.CLI_setdeviceId
                0x000000000000b4ba        0xa build/AWS_IOT/production/mcc_generated_files/cli/cli.o
                0x000000000000b4ba                CLI_setdeviceId

.text.MQTT_SetPublishReceptionHandlerTable
                0x000000000000b4c4        0xa
 .text.MQTT_SetPublishReceptionHandlerTable
                0x000000000000b4c4        0xa build/AWS_IOT/production/mcc_generated_files/cloud/mqtt_service.o
                0x000000000000b4c4                MQTT_SetPublishReceptionHandlerTable

.text.timeout_initialize
                0x000000000000b4ce        0xa
 .text.timeout_initialize
                0x000000000000b4ce        0xa build/AWS_IOT/production/mcc_generated_files/drivers/timeout.o
                0x000000000000b4ce                timeout_initialize

.text.MQTT_LastSentSize
                0x000000000000b4d8        0xa
 .text.MQTT_LastSentSize
                0x000000000000b4d8        0xa build/AWS_IOT/production/mcc_generated_files/mqtt/mqtt_comm_bsd/mqtt_comm_layer.o
                0x000000000000b4d8                MQTT_LastSentSize

.text.MQTT_GetLastReceivedLength
                0x000000000000b4e2        0xa
 .text.MQTT_GetLastReceivedLength
                0x000000000000b4e2        0xa build/AWS_IOT/production/mcc_generated_files/mqtt/mqtt_core/mqtt_core.o
                0x000000000000b4e2                MQTT_GetLastReceivedLength

.text.MQTT_SetPublishReceptionCallback
                0x000000000000b4ec        0xa
 .text.MQTT_SetPublishReceptionCallback
                0x000000000000b4ec        0xa build/AWS_IOT/production/mcc_generated_files/mqtt/mqtt_packetTransfer_interface.o
                0x000000000000b4ec                MQTT_SetPublishReceptionCallback

.text.MQTT_GetPublishReceptionCallback
                0x000000000000b4f6        0xa
 .text.MQTT_GetPublishReceptionCallback
                0x000000000000b4f6        0xa build/AWS_IOT/production/mcc_generated_files/mqtt/mqtt_packetTransfer_interface.o
                0x000000000000b4f6                MQTT_GetPublishReceptionCallback

.text.BSD_SetRecvHandlerTable
                0x000000000000b500        0xa
 .text.BSD_SetRecvHandlerTable
                0x000000000000b500        0xa build/AWS_IOT/production/mcc_generated_files/mqtt/mqtt_winc_adapter.o
                0x000000000000b500                BSD_SetRecvHandlerTable

.text.PORTF_INT_SetInterruptHandler
                0x000000000000b50a        0xa
 .text.PORTF_INT_SetInterruptHandler
                0x000000000000b50a        0xa build/AWS_IOT/production/mcc_generated_files/src/pin_manager.o
                0x000000000000b50a                PORTF_INT_SetInterruptHandler

.text.RTC_SetOVFIsrCallback
                0x000000000000b514        0xa
 .text.RTC_SetOVFIsrCallback
                0x000000000000b514        0xa build/AWS_IOT/production/mcc_generated_files/src/rtc.o
                0x000000000000b514                RTC_SetOVFIsrCallback

.text.RTC_ReadCounter
                0x000000000000b51e        0xa
 .text.RTC_ReadCounter
                0x000000000000b51e        0xa build/AWS_IOT/production/mcc_generated_files/src/rtc.o
                0x000000000000b51e                RTC_ReadCounter

.text.I2C0_MasterIsNack
                0x000000000000b528        0xa
 .text.I2C0_MasterIsNack
                0x000000000000b528        0xa build/AWS_IOT/production/mcc_generated_files/src/twi0_master.o
                0x000000000000b528                I2C0_MasterIsNack

.text.USART2_printCHAR
                0x000000000000b532        0xa
 .text.USART2_printCHAR
                0x000000000000b532        0xa build/AWS_IOT/production/mcc_generated_files/src/usart2.o
                0x000000000000b532                USART2_printCHAR

.text.winc_bus_deinit
                0x000000000000b53c        0xa
 .text.winc_bus_deinit
                0x000000000000b53c        0xa build/AWS_IOT/production/mcc_generated_files/winc/driver/winc_spi.o
                0x000000000000b53c                winc_bus_deinit

.text.wifiConnectionStateChanged
                0x000000000000b546        0xa
 .text.wifiConnectionStateChanged
                0x000000000000b546        0xa build/AWS_IOT/production/mcc_generated_files/application_manager.o

.text.debug_init
                0x000000000000b550        0xa
 .text.debug_init
                0x000000000000b550        0xa build/AWS_IOT/production/mcc_generated_files/debug_print.o
                0x000000000000b550                debug_init

.text.LED_modeRed
                0x000000000000b55a        0xa
 .text.LED_modeRed
                0x000000000000b55a        0xa build/AWS_IOT/production/mcc_generated_files/led.o
                0x000000000000b55a                LED_modeRed

.text.LED_modeBlue
                0x000000000000b564        0xa
 .text.LED_modeBlue
                0x000000000000b564        0xa build/AWS_IOT/production/mcc_generated_files/led.o
                0x000000000000b564                LED_modeBlue

.text.LED_modeGreen
                0x000000000000b56e        0xa
 .text.LED_modeGreen
                0x000000000000b56e        0xa build/AWS_IOT/production/mcc_generated_files/led.o
                0x000000000000b56e                LED_modeGreen

.text.LED_modeYellow
                0x000000000000b578        0xa
 .text.LED_modeYellow
                0x000000000000b578        0xa build/AWS_IOT/production/mcc_generated_files/led.o
                0x000000000000b578                LED_modeYellow

.text.main      0x000000000000b582        0xa
 .text.main     0x000000000000b582        0xa build/AWS_IOT/production/main.o
                0x000000000000b582                main

.text.avrlibc   0x000000000000b58c        0xa
 .text.avrlibc  0x000000000000b58c        0xa /Applications/microchip/xc8/v2.10/avr/bin/../lib/gcc/avr/5.4.0/../../../../avr/lib/avrxmega3/libc.a(strtok.o)
                0x000000000000b58c                strtok

.text           0x000000000000b596        0xa
 .text          0x000000000000b596        0xa /Applications/microchip/xc8/v2.10/avr/bin/../lib/gcc/avr/5.4.0/../../../../avr/lib/avrxmega3/libc.a(difftime.o)
                0x000000000000b596                difftime

.text.atgetifacecfg
                0x000000000000b5a0        0x8
 .text.atgetifacecfg
                0x000000000000b5a0        0x8 build/AWS_IOT/production/mcc_generated_files/CryptoAuthenticationLibrary/atca_iface.o
                0x000000000000b5a0                atgetifacecfg

.text.WINC_open
                0x000000000000b5a8        0x8
 .text.WINC_open
                0x000000000000b5a8        0x8 build/AWS_IOT/production/mcc_generated_files/drivers/spi_master.o
                0x000000000000b5a8                WINC_open

.text.dummyHandler
                0x000000000000b5b0        0x8
 .text.dummyHandler
                0x000000000000b5b0        0x8 build/AWS_IOT/production/mcc_generated_files/drivers/timeout.o
                0x000000000000b5b0                dummyHandler

.text.BSD_htons
                0x000000000000b5b8        0x8
 .text.BSD_htons
                0x000000000000b5b8        0x8 build/AWS_IOT/production/mcc_generated_files/mqtt/mqtt_winc_adapter.o
                0x000000000000b5b8                BSD_htons

.text.protected_write_io
                0x000000000000b5c0        0x8
 .text.protected_write_io
                0x000000000000b5c0        0x8 build/AWS_IOT/production/mcc_generated_files/src/protected_io.o
                0x000000000000b5c0                protected_write_io

.text.I2C0_MasterRead
                0x000000000000b5c8        0x8
 .text.I2C0_MasterRead
                0x000000000000b5c8        0x8 build/AWS_IOT/production/mcc_generated_files/src/twi0_master.o
                0x000000000000b5c8                I2C0_MasterRead

.text.I2C0_MasterWrite
                0x000000000000b5d0        0x8
 .text.I2C0_MasterWrite
                0x000000000000b5d0        0x8 build/AWS_IOT/production/mcc_generated_files/src/twi0_master.o
                0x000000000000b5d0                I2C0_MasterWrite

.text.I2C0_DO_TX_ACK
                0x000000000000b5d8        0x8
 .text.I2C0_DO_TX_ACK
                0x000000000000b5d8        0x8 build/AWS_IOT/production/mcc_generated_files/src/twi0_master.o

.text.I2C0_DO_RX_ACK
                0x000000000000b5e0        0x8
 .text.I2C0_DO_RX_ACK
                0x000000000000b5e0        0x8 build/AWS_IOT/production/mcc_generated_files/src/twi0_master.o

.text.I2C0_DO_RX_NACK_RESTART
                0x000000000000b5e8        0x8
 .text.I2C0_DO_RX_NACK_RESTART
                0x000000000000b5e8        0x8 build/AWS_IOT/production/mcc_generated_files/src/twi0_master.o

.text.ADC0_IsConversionDone
                0x000000000000b5f0        0x8
 .text.ADC0_IsConversionDone
                0x000000000000b5f0        0x8 build/AWS_IOT/production/mcc_generated_files/src/adc0.o
                0x000000000000b5f0                ADC0_IsConversionDone

.text.winc_adapter_chip_enable_assert
                0x000000000000b5f8        0x8
 .text.winc_adapter_chip_enable_assert
                0x000000000000b5f8        0x8 build/AWS_IOT/production/mcc_generated_files/winc/driver/winc_adapter.o
                0x000000000000b5f8                winc_adapter_chip_enable_assert

.text.winc_adapter_chip_enable_deassert
                0x000000000000b600        0x8
 .text.winc_adapter_chip_enable_deassert
                0x000000000000b600        0x8 build/AWS_IOT/production/mcc_generated_files/winc/driver/winc_adapter.o
                0x000000000000b600                winc_adapter_chip_enable_deassert

.text.winc_adapter_reset_assert
                0x000000000000b608        0x8
 .text.winc_adapter_reset_assert
                0x000000000000b608        0x8 build/AWS_IOT/production/mcc_generated_files/winc/driver/winc_adapter.o
                0x000000000000b608                winc_adapter_reset_assert

.text.winc_adapter_reset_deassert
                0x000000000000b610        0x8
 .text.winc_adapter_reset_deassert
                0x000000000000b610        0x8 build/AWS_IOT/production/mcc_generated_files/winc/driver/winc_adapter.o
                0x000000000000b610                winc_adapter_reset_deassert

.text.SENSORS_getLightValue
                0x000000000000b618        0x8
 .text.SENSORS_getLightValue
                0x000000000000b618        0x8 build/AWS_IOT/production/mcc_generated_files/sensors_handling.o
                0x000000000000b618                SENSORS_getLightValue

.text.avrlibc   0x000000000000b620        0x8
 .text.avrlibc  0x000000000000b620        0x8 /Applications/microchip/xc8/v2.10/avr/bin/../lib/gcc/avr/5.4.0/../../../../avr/lib/avrxmega3/libc.a(atoi_M.o)
                0x000000000000b620                atoi

.text.MQTT_CLIENT_receive
                0x000000000000b628        0x6
 .text.MQTT_CLIENT_receive
                0x000000000000b628        0x6 build/AWS_IOT/production/mcc_generated_files/cloud/mqtt_service.o
                0x000000000000b628                MQTT_CLIENT_receive

.text.CLOUD_publish
                0x000000000000b62e        0x6
 .text.CLOUD_publish
                0x000000000000b62e        0x6 build/AWS_IOT/production/mcc_generated_files/cloud/aws_cloud_service.o
                0x000000000000b62e                CLOUD_publish

.text.MQTT_GetClientConnectionInfo
                0x000000000000b634        0x6
 .text.MQTT_GetClientConnectionInfo
                0x000000000000b634        0x6 build/AWS_IOT/production/mcc_generated_files/mqtt/mqtt_comm_bsd/mqtt_comm_layer.o
                0x000000000000b634                MQTT_GetClientConnectionInfo

.text.MQTT_initialiseState
                0x000000000000b63a        0x6
 .text.MQTT_initialiseState
                0x000000000000b63a        0x6 build/AWS_IOT/production/mcc_generated_files/mqtt/mqtt_core/mqtt_core.o
                0x000000000000b63a                MQTT_initialiseState

.text.MQTT_GetConnectionState
                0x000000000000b640        0x6
 .text.MQTT_GetConnectionState
                0x000000000000b640        0x6 build/AWS_IOT/production/mcc_generated_files/mqtt/mqtt_core/mqtt_core.o
                0x000000000000b640                MQTT_GetConnectionState

.text.MQTT_GetLastHandlerState
                0x000000000000b646        0x6
 .text.MQTT_GetLastHandlerState
                0x000000000000b646        0x6 build/AWS_IOT/production/mcc_generated_files/mqtt/mqtt_core/mqtt_core.o
                0x000000000000b646                MQTT_GetLastHandlerState

.text.MQTT_GetLastReceivedPacketHeader
                0x000000000000b64c        0x6
 .text.MQTT_GetLastReceivedPacketHeader
                0x000000000000b64c        0x6 build/AWS_IOT/production/mcc_generated_files/mqtt/mqtt_core/mqtt_core.o
                0x000000000000b64c                MQTT_GetLastReceivedPacketHeader

.text.SPI0_Close
                0x000000000000b652        0x6
 .text.SPI0_Close
                0x000000000000b652        0x6 build/AWS_IOT/production/mcc_generated_files/src/spi0.o
                0x000000000000b652                SPI0_Close

.text.SPI0_WriteByte
                0x000000000000b658        0x6
 .text.SPI0_WriteByte
                0x000000000000b658        0x6 build/AWS_IOT/production/mcc_generated_files/src/spi0.o
                0x000000000000b658                SPI0_WriteByte

.text.SPI0_ReadByte
                0x000000000000b65e        0x6
 .text.SPI0_ReadByte
                0x000000000000b65e        0x6 build/AWS_IOT/production/mcc_generated_files/src/spi0.o
                0x000000000000b65e                SPI0_ReadByte

.text.I2C0_DO_SEND_RESTART
                0x000000000000b664        0x6
 .text.I2C0_DO_SEND_RESTART
                0x000000000000b664        0x6 build/AWS_IOT/production/mcc_generated_files/src/twi0_master.o

.text.I2C0_DO_SEND_RESTART_READ
                0x000000000000b66a        0x6
 .text.I2C0_DO_SEND_RESTART_READ
                0x000000000000b66a        0x6 build/AWS_IOT/production/mcc_generated_files/src/twi0_master.o

.text.I2C0_DO_SEND_RESTART_WRITE
                0x000000000000b670        0x6
 .text.I2C0_DO_SEND_RESTART_WRITE
                0x000000000000b670        0x6 build/AWS_IOT/production/mcc_generated_files/src/twi0_master.o

.text.winc_bus_error
                0x000000000000b676        0x6
 .text.winc_bus_error
                0x000000000000b676        0x6 build/AWS_IOT/production/mcc_generated_files/winc/driver/winc_spi.o
                0x000000000000b676                winc_bus_error

.text.winc_hif_deinit
                0x000000000000b67c        0x6
 .text.winc_hif_deinit
                0x000000000000b67c        0x6 build/AWS_IOT/production/mcc_generated_files/winc/driver/winc_hif.o
                0x000000000000b67c                winc_hif_deinit

.text.m2m_wifi_handle_events
                0x000000000000b682        0x6
 .text.m2m_wifi_handle_events
                0x000000000000b682        0x6 build/AWS_IOT/production/mcc_generated_files/winc/m2m/m2m_wifi.o
                0x000000000000b682                m2m_wifi_handle_events

.text.runScheduler
                0x000000000000b688        0x6
 .text.runScheduler
                0x000000000000b688        0x6 build/AWS_IOT/production/mcc_generated_files/application_manager.o
                0x000000000000b688                runScheduler

.text.debug_setSeverity
                0x000000000000b68e        0x6
 .text.debug_setSeverity
                0x000000000000b68e        0x6 build/AWS_IOT/production/mcc_generated_files/debug_print.o
                0x000000000000b68e                debug_setSeverity

.text.TIME_getDiffTime
                0x000000000000b694        0x6
 .text.TIME_getDiffTime
                0x000000000000b694        0x6 build/AWS_IOT/production/mcc_generated_files/time_service.o
                0x000000000000b694                TIME_getDiffTime

.text           0x000000000000b69a        0x4
 .text          0x000000000000b69a        0x4 /Applications/microchip/mplabx/v5.30/packs/Microchip/ATmega_DFP/2.0.12/gcc/dev/atmega4808/avrxmega3/crtatmega4808.o
                0x000000000000b69a                __vector_20
                0x000000000000b69a                __vector_1
                0x000000000000b69a                __vector_34
                0x000000000000b69a                __vector_24
                0x000000000000b69a                __vector_12
                0x000000000000b69a                __bad_interrupt
                0x000000000000b69a                __vector_6
                0x000000000000b69a                __vector_35
                0x000000000000b69a                __vector_30
                0x000000000000b69a                __vector_25
                0x000000000000b69a                __vector_11
                0x000000000000b69a                __vector_13
                0x000000000000b69a                __vector_17
                0x000000000000b69a                __vector_19
                0x000000000000b69a                __vector_7
                0x000000000000b69a                __vector_27
                0x000000000000b69a                __vector_5
                0x000000000000b69a                __vector_9
                0x000000000000b69a                __vector_21
                0x000000000000b69a                __vector_15
                0x000000000000b69a                __vector_8
                0x000000000000b69a                __vector_26
                0x000000000000b69a                __vector_14
                0x000000000000b69a                __vector_10
                0x000000000000b69a                __vector_16
                0x000000000000b69a                __vector_18
                0x000000000000b69a                __vector_28

.text.hal_i2c_post_init
                0x000000000000b69e        0x4
 .text.hal_i2c_post_init
                0x000000000000b69e        0x4 build/AWS_IOT/production/mcc_generated_files/CryptoAuthenticationLibrary/hal/atca_i2c_hal.o
                0x000000000000b69e                hal_i2c_post_init

.text.hal_i2c_release
                0x000000000000b6a2        0x4
 .text.hal_i2c_release
                0x000000000000b6a2        0x4 build/AWS_IOT/production/mcc_generated_files/CryptoAuthenticationLibrary/hal/atca_i2c_hal.o
                0x000000000000b6a2                hal_i2c_release

.text.I2C0_RETURN_STOP
                0x000000000000b6a6        0x4
 .text.I2C0_RETURN_STOP
                0x000000000000b6a6        0x4 build/AWS_IOT/production/mcc_generated_files/src/twi0_master.o

.text.I2C0_RETURN_RESET
                0x000000000000b6aa        0x4
 .text.I2C0_RETURN_RESET
                0x000000000000b6aa        0x4 build/AWS_IOT/production/mcc_generated_files/src/twi0_master.o

.text.I2C0_SetRestartWriteCallback
                0x000000000000b6ae        0x4
 .text.I2C0_SetRestartWriteCallback
                0x000000000000b6ae        0x4 build/AWS_IOT/production/mcc_generated_files/src/twi0_master.o
                0x000000000000b6ae                I2C0_SetRestartWriteCallback

.text.winc_adapter_deinit
                0x000000000000b6b2        0x4
 .text.winc_adapter_deinit
                0x000000000000b6b2        0x4 build/AWS_IOT/production/mcc_generated_files/winc/driver/winc_adapter.o
                0x000000000000b6b2                winc_adapter_deinit

.text.winc_adapter_spi_open
                0x000000000000b6b6        0x4
 .text.winc_adapter_spi_open
                0x000000000000b6b6        0x4 build/AWS_IOT/production/mcc_generated_files/winc/driver/winc_adapter.o
                0x000000000000b6b6                winc_adapter_spi_open

.text.winc_adapter_spi_close
                0x000000000000b6ba        0x4
 .text.winc_adapter_spi_close
                0x000000000000b6ba        0x4 build/AWS_IOT/production/mcc_generated_files/winc/driver/winc_adapter.o
                0x000000000000b6ba                winc_adapter_spi_close

.text.PORTF_SW0_DefaultInterruptHandler
                0x000000000000b6be        0x2
 .text.PORTF_SW0_DefaultInterruptHandler
                0x000000000000b6be        0x2 build/AWS_IOT/production/mcc_generated_files/src/pin_manager.o
                0x000000000000b6be                PORTF_SW0_DefaultInterruptHandler

.text.PORTF_PF1_DefaultInterruptHandler
                0x000000000000b6c0        0x2
 .text.PORTF_PF1_DefaultInterruptHandler
                0x000000000000b6c0        0x2 build/AWS_IOT/production/mcc_generated_files/src/pin_manager.o
                0x000000000000b6c0                PORTF_PF1_DefaultInterruptHandler

.text.PORTF_PF0_DefaultInterruptHandler
                0x000000000000b6c2        0x2
 .text.PORTF_PF0_DefaultInterruptHandler
                0x000000000000b6c2        0x2 build/AWS_IOT/production/mcc_generated_files/src/pin_manager.o
                0x000000000000b6c2                PORTF_PF0_DefaultInterruptHandler

.text.PORTF_CE_DefaultInterruptHandler
                0x000000000000b6c4        0x2
 .text.PORTF_CE_DefaultInterruptHandler
                0x000000000000b6c4        0x2 build/AWS_IOT/production/mcc_generated_files/src/pin_manager.o
                0x000000000000b6c4                PORTF_CE_DefaultInterruptHandler

.text.PORTF_INT_DefaultInterruptHandler
                0x000000000000b6c6        0x2
 .text.PORTF_INT_DefaultInterruptHandler
                0x000000000000b6c6        0x2 build/AWS_IOT/production/mcc_generated_files/src/pin_manager.o
                0x000000000000b6c6                PORTF_INT_DefaultInterruptHandler

.text.PORTF_SW1_DefaultInterruptHandler
                0x000000000000b6c8        0x2
 .text.PORTF_SW1_DefaultInterruptHandler
                0x000000000000b6c8        0x2 build/AWS_IOT/production/mcc_generated_files/src/pin_manager.o
                0x000000000000b6c8                PORTF_SW1_DefaultInterruptHandler

.text.PORTF_WAKE_DefaultInterruptHandler
                0x000000000000b6ca        0x2
 .text.PORTF_WAKE_DefaultInterruptHandler
                0x000000000000b6ca        0x2 build/AWS_IOT/production/mcc_generated_files/src/pin_manager.o
                0x000000000000b6ca                PORTF_WAKE_DefaultInterruptHandler

.text.hif_null_cb
                0x000000000000b6cc        0x2
 .text.hif_null_cb
                0x000000000000b6cc        0x2 build/AWS_IOT/production/mcc_generated_files/winc/driver/winc_hif.o

.text.m2m_ssl_stop_processing_certs
                0x000000000000b6ce        0x2
 .text.m2m_ssl_stop_processing_certs
                0x000000000000b6ce        0x2 build/AWS_IOT/production/mcc_generated_files/winc/m2m/m2m_ssl.o
                0x000000000000b6ce                m2m_ssl_stop_processing_certs

.data.WiFiCbTable
                0x0000000000803009       0x2d load address 0x000000000000b6d0
 .data.WiFiCbTable
                0x0000000000803009       0x2d build/AWS_IOT/production/mcc_generated_files/winc/m2m/m2m_wifi.o

.data.cfg_ateccx08a_i2c_custom
                0x0000000000803036       0x26 load address 0x000000000000b6fd
 .data.cfg_ateccx08a_i2c_custom
                0x0000000000803036       0x26 build/AWS_IOT/production/mcc_generated_files/cloud/crypto_client/crypto_client.o
                0x0000000000803036                cfg_ateccx08a_i2c_custom

.data.secureCfg
                0x000000000080305c       0x26 load address 0x000000000000b723
 .data.secureCfg
                0x000000000080305c       0x26 build/AWS_IOT/production/mcc_generated_files/CryptoAuthenticationLibrary/CryptoAuth_init.o
                0x000000000080305c                secureCfg

.data.I2C0_fsmStateTable
                0x0000000000803082       0x24 load address 0x000000000000b749
 .data.I2C0_fsmStateTable
                0x0000000000803082       0x24 build/AWS_IOT/production/mcc_generated_files/src/twi0_master.o
                0x0000000000803082                I2C0_fsmStateTable

.data.gacHttpProvDomainName.5271
                0x00000000008030e7       0x15 load address 0x000000000000b76d
 .data.gacHttpProvDomainName.5271
                0x00000000008030e7       0x15 build/AWS_IOT/production/mcc_generated_files/cloud/wifi_service.o

.data.attDeviceID
                0x00000000008030fc       0x14 load address 0x000000000000b782
 .data.attDeviceID
                0x00000000008030fc       0x14 build/AWS_IOT/production/mcc_generated_files/application_manager.o
                0x00000000008030fc                attDeviceID

.data.debug_message_prefix
                0x0000000000803110       0x14 load address 0x000000000000b796
 .data.debug_message_prefix
                0x0000000000803110       0x14 build/AWS_IOT/production/mcc_generated_files/debug_print.o

.data.cloudContext
                0x0000000000803136       0x10 load address 0x000000000000b7aa
 .data.cloudContext
                0x0000000000803136       0x10 build/AWS_IOT/production/mcc_generated_files/cloud/cloud_service.o
                0x0000000000803136                cloudContext

.data.USART2_stream
                0x0000000000803164        0xe load address 0x000000000000b7ba
 .data.USART2_stream
                0x0000000000803164        0xe build/AWS_IOT/production/mcc_generated_files/src/usart2.o
                0x0000000000803164                USART2_stream

.data.CLI_task_timer
                0x000000000080317f        0xa load address 0x000000000000b7c8
 .data.CLI_task_timer
                0x000000000080317f        0xa build/AWS_IOT/production/mcc_generated_files/cli/cli.o
                0x000000000080317f                CLI_task_timer

.data.cloudResetTaskTimer
                0x0000000000803189        0xa load address 0x000000000000b7d2
 .data.cloudResetTaskTimer
                0x0000000000803189        0xa build/AWS_IOT/production/mcc_generated_files/cloud/cloud_service.o
                0x0000000000803189                cloudResetTaskTimer

.data.mqttTimeoutTaskTimer
                0x0000000000803193        0xa load address 0x000000000000b7dc
 .data.mqttTimeoutTaskTimer
                0x0000000000803193        0xa build/AWS_IOT/production/mcc_generated_files/cloud/cloud_service.o
                0x0000000000803193                mqttTimeoutTaskTimer

.data.cloudTaskTimer
                0x000000000080319d        0xa load address 0x000000000000b7e6
 .data.cloudTaskTimer
                0x000000000080319d        0xa build/AWS_IOT/production/mcc_generated_files/cloud/cloud_service.o
                0x000000000080319d                cloudTaskTimer

.data.checkBackTimer
                0x00000000008031a7        0xa load address 0x000000000000b7f0
 .data.checkBackTimer
                0x00000000008031a7        0xa build/AWS_IOT/production/mcc_generated_files/cloud/wifi_service.o
                0x00000000008031a7                checkBackTimer

.data.wifiHandlerTimer
                0x00000000008031b1        0xa load address 0x000000000000b7fa
 .data.wifiHandlerTimer
                0x00000000008031b1        0xa build/AWS_IOT/production/mcc_generated_files/cloud/wifi_service.o
                0x00000000008031b1                wifiHandlerTimer

.data.ntpTimeFetchTimer
                0x00000000008031bb        0xa load address 0x000000000000b804
 .data.ntpTimeFetchTimer
                0x00000000008031bb        0xa build/AWS_IOT/production/mcc_generated_files/cloud/wifi_service.o
                0x00000000008031bb                ntpTimeFetchTimer

.data.softApConnectTimer
                0x00000000008031c5        0xa load address 0x000000000000b80e
 .data.softApConnectTimer
                0x00000000008031c5        0xa build/AWS_IOT/production/mcc_generated_files/cloud/wifi_service.o
                0x00000000008031c5                softApConnectTimer

.data.dummy     0x00000000008031cf        0xa load address 0x000000000000b818
 .data.dummy    0x00000000008031cf        0xa build/AWS_IOT/production/mcc_generated_files/drivers/timeout.o
                0x00000000008031cf                dummy

.data.unsubackTimer
                0x00000000008031d9        0xa load address 0x000000000000b822
 .data.unsubackTimer
                0x00000000008031d9        0xa build/AWS_IOT/production/mcc_generated_files/mqtt/mqtt_core/mqtt_core.o
                0x00000000008031d9                unsubackTimer

.data.subackTimer
                0x00000000008031e3        0xa load address 0x000000000000b82c
 .data.subackTimer
                0x00000000008031e3        0xa build/AWS_IOT/production/mcc_generated_files/mqtt/mqtt_core/mqtt_core.o
                0x00000000008031e3                subackTimer

.data.pingrespTimer
                0x00000000008031ed        0xa load address 0x000000000000b836
 .data.pingrespTimer
                0x00000000008031ed        0xa build/AWS_IOT/production/mcc_generated_files/mqtt/mqtt_core/mqtt_core.o
                0x00000000008031ed                pingrespTimer

.data.pingreqTimer
                0x00000000008031f7        0xa load address 0x000000000000b840
 .data.pingreqTimer
                0x00000000008031f7        0xa build/AWS_IOT/production/mcc_generated_files/mqtt/mqtt_core/mqtt_core.o
                0x00000000008031f7                pingreqTimer

.data.connackTimer
                0x0000000000803201        0xa load address 0x000000000000b84a
 .data.connackTimer
                0x0000000000803201        0xa build/AWS_IOT/production/mcc_generated_files/mqtt/mqtt_core/mqtt_core.o
                0x0000000000803201                connackTimer

.data.controlDeviceShadowTimer
                0x000000000080320b        0xa load address 0x000000000000b854
 .data.controlDeviceShadowTimer
                0x000000000080320b        0xa build/AWS_IOT/production/mcc_generated_files/application_manager.o
                0x000000000080320b                controlDeviceShadowTimer

.data.initDeviceShadowTimer
                0x0000000000803215        0xa load address 0x000000000000b85e
 .data.initDeviceShadowTimer
                0x0000000000803215        0xa build/AWS_IOT/production/mcc_generated_files/application_manager.o
                0x0000000000803215                initDeviceShadowTimer

.data.MAIN_dataTasksTimer
                0x000000000080321f        0xa load address 0x000000000000b868
 .data.MAIN_dataTasksTimer
                0x000000000080321f        0xa build/AWS_IOT/production/mcc_generated_files/application_manager.o
                0x000000000080321f                MAIN_dataTasksTimer

.data.LED_service_timer
                0x0000000000803229        0xa load address 0x000000000000b872
 .data.LED_service_timer
                0x0000000000803229        0xa build/AWS_IOT/production/mcc_generated_files/led.o

.data.lastAge.5665
                0x0000000000803237        0x4 load address 0x000000000000b87c
 .data.lastAge.5665
                0x0000000000803237        0x4 build/AWS_IOT/production/mcc_generated_files/cloud/cloud_service.o

.data.spi0_configurations
                0x0000000000803243        0x4 load address 0x000000000000b880
 .data.spi0_configurations
                0x0000000000803243        0x4 build/AWS_IOT/production/mcc_generated_files/src/spi0.o
                0x0000000000803243                spi0_configurations

.data.USART2_tx_isr_cb
                0x000000000080328b        0x2 load address 0x000000000000b884
 .data.USART2_tx_isr_cb
                0x000000000080328b        0x2 build/AWS_IOT/production/mcc_generated_files/src/usart2.o
                0x000000000080328b                USART2_tx_isr_cb

.data.USART2_rx_isr_cb
                0x000000000080328d        0x2 load address 0x000000000000b886
 .data.USART2_rx_isr_cb
                0x000000000080328d        0x2 build/AWS_IOT/production/mcc_generated_files/src/usart2.o
                0x000000000080328d                USART2_rx_isr_cb

.data           0x000000000080329f        0x2 load address 0x000000000000b888
 .data          0x000000000080329f        0x2 /Applications/microchip/xc8/v2.10/avr/bin/../lib/gcc/avr/5.4.0/../../../../avr/lib/avrxmega3/libc.a(asc_store.o)
                0x000000000080329f                __asc_store

.data.bSPIBusError
                0x00000000008032b7        0x1 load address 0x000000000000b88a
 .data.bSPIBusError
                0x00000000008032b7        0x1 build/AWS_IOT/production/mcc_generated_files/winc/driver/winc_spi.o

.data.genuStatus
                0x00000000008032bb        0x1 load address 0x000000000000b88b
 .data.genuStatus
                0x00000000008032bb        0x1 build/AWS_IOT/production/mcc_generated_files/winc/m2m/m2m_ssl.o

.data.ledStatus.5571
                0x00000000008032c6        0x1 load address 0x000000000000b88c
 .data.ledStatus.5571
                0x00000000008032c6        0x1 build/AWS_IOT/production/mcc_generated_files/led.o

.data.ledStatus.5585
                0x00000000008032c7        0x1 load address 0x000000000000b88d
 .data.ledStatus.5585
                0x00000000008032c7        0x1 build/AWS_IOT/production/mcc_generated_files/led.o

.data.ledStatus.5599
                0x00000000008032c8        0x1 load address 0x000000000000b88e
 .data.ledStatus.5599
                0x00000000008032c8        0x1 build/AWS_IOT/production/mcc_generated_files/led.o

.data.ledStatus.5557
                0x00000000008032c9        0x1 load address 0x000000000000b88f
 .data.ledStatus.5557
                0x00000000008032c9        0x1 build/AWS_IOT/production/mcc_generated_files/led.o
